
projectADC.elf:     file format elf32-avr

Sections:
Idx Name          Size      VMA       LMA       File off  Algn
  0 .text         000011d8  00000000  00000000  00000094  2**1
                  CONTENTS, ALLOC, LOAD, READONLY, CODE
  1 .data         00000044  00800060  000011d8  0000126c  2**0
                  CONTENTS, ALLOC, LOAD, DATA
  2 .bss          000000a4  008000a4  008000a4  000012b0  2**0
                  ALLOC
  3 .comment      0000005c  00000000  00000000  000012b0  2**0
                  CONTENTS, READONLY
  4 .note.gnu.avr.deviceinfo 0000003c  00000000  00000000  0000130c  2**2
                  CONTENTS, READONLY
  5 .debug_aranges 000001b8  00000000  00000000  00001348  2**0
                  CONTENTS, READONLY, DEBUGGING
  6 .debug_info   000015b4  00000000  00000000  00001500  2**0
                  CONTENTS, READONLY, DEBUGGING
  7 .debug_abbrev 00000aa8  00000000  00000000  00002ab4  2**0
                  CONTENTS, READONLY, DEBUGGING
  8 .debug_line   00000bc0  00000000  00000000  0000355c  2**0
                  CONTENTS, READONLY, DEBUGGING
  9 .debug_frame  00000440  00000000  00000000  0000411c  2**2
                  CONTENTS, READONLY, DEBUGGING
 10 .debug_str    000005e6  00000000  00000000  0000455c  2**0
                  CONTENTS, READONLY, DEBUGGING
 11 .debug_loc    00000eef  00000000  00000000  00004b42  2**0
                  CONTENTS, READONLY, DEBUGGING
 12 .debug_ranges 00000190  00000000  00000000  00005a31  2**0
                  CONTENTS, READONLY, DEBUGGING

Disassembly of section .text:

00000000 <__vectors>:
       0:	93 c0       	rjmp	.+294    	; 0x128 <__ctors_end>
       2:	ad c0       	rjmp	.+346    	; 0x15e <__bad_interrupt>
       4:	ac c0       	rjmp	.+344    	; 0x15e <__bad_interrupt>
       6:	ab c0       	rjmp	.+342    	; 0x15e <__bad_interrupt>
       8:	aa c0       	rjmp	.+340    	; 0x15e <__bad_interrupt>
       a:	a9 c0       	rjmp	.+338    	; 0x15e <__bad_interrupt>
       c:	a8 c0       	rjmp	.+336    	; 0x15e <__bad_interrupt>
       e:	a7 c0       	rjmp	.+334    	; 0x15e <__bad_interrupt>
      10:	a6 c0       	rjmp	.+332    	; 0x15e <__bad_interrupt>
      12:	a5 c0       	rjmp	.+330    	; 0x15e <__bad_interrupt>
      14:	a4 c0       	rjmp	.+328    	; 0x15e <__bad_interrupt>
      16:	a3 c0       	rjmp	.+326    	; 0x15e <__bad_interrupt>
      18:	a2 c0       	rjmp	.+324    	; 0x15e <__bad_interrupt>
      1a:	a1 c0       	rjmp	.+322    	; 0x15e <__bad_interrupt>
      1c:	a0 c0       	rjmp	.+320    	; 0x15e <__bad_interrupt>
      1e:	9f c0       	rjmp	.+318    	; 0x15e <__bad_interrupt>
      20:	9e c0       	rjmp	.+316    	; 0x15e <__bad_interrupt>
      22:	9d c0       	rjmp	.+314    	; 0x15e <__bad_interrupt>
      24:	9c c0       	rjmp	.+312    	; 0x15e <__bad_interrupt>

00000026 <__trampolines_end>:
      26:	6e 61       	ori	r22, 0x1E	; 30
      28:	6e 00       	.word	0x006e	; ????

0000002a <__c.2240>:
      2a:	69 6e 66 00 00 40 7a 10 f3 5a 00 a0 72 4e 18 09     inf..@z..Z..rN..
      3a:	00 10 a5 d4 e8 00 00 e8 76 48 17 00 00 e4 0b 54     ........vH.....T
      4a:	02 00 00 ca 9a 3b 00 00 00 e1 f5 05 00 00 80 96     .....;..........
      5a:	98 00 00 00 40 42 0f 00 00 00 a0 86 01 00 00 00     ....@B..........
      6a:	10 27 00 00 00 00 e8 03 00 00 00 00 64 00 00 00     .'..........d...
      7a:	00 00 0a 00 00 00 00 00 01 00 00 00 00 00 2c 76     ..............,v
      8a:	d8 88 dc 67 4f 08 23 df c1 df ae 59 e1 b1 b7 96     ...gO.#....Y....
      9a:	e5 e3 e4 53 c6 3a e6 51 99 76 96 e8 e6 c2 84 26     ...S.:.Q.v.....&
      aa:	eb 89 8c 9b 62 ed 40 7c 6f fc ef bc 9c 9f 40 f2     ....b.@|o.....@.
      ba:	ba a5 6f a5 f4 90 05 5a 2a f7 5c 93 6b 6c f9 67     ..o....Z*.\.kl.g
      ca:	6d c1 1b fc e0 e4 0d 47 fe f5 20 e6 b5 00 d0 ed     m......G.. .....
      da:	90 2e 03 00 94 35 77 05 00 80 84 1e 08 00 00 20     .....5w........ 
      ea:	4e 0a 00 00 00 c8 0c 33 33 33 33 0f 98 6e 12 83     N......3333..n..
      fa:	11 41 ef 8d 21 14 89 3b e6 55 16 cf fe e6 db 18     .A..!..;.U......
     10a:	d1 84 4b 38 1b f7 7c 1d 90 1d a4 bb e4 24 20 32     ..K8..|......$ 2
     11a:	84 72 5e 22 81 00 c9 f1 24 ec a1 e5 3d 27           .r^"....$...='

00000128 <__ctors_end>:
     128:	11 24       	eor	r1, r1
     12a:	1f be       	out	0x3f, r1	; 63
     12c:	cf e5       	ldi	r28, 0x5F	; 95
     12e:	d4 e0       	ldi	r29, 0x04	; 4
     130:	de bf       	out	0x3e, r29	; 62
     132:	cd bf       	out	0x3d, r28	; 61

00000134 <__do_copy_data>:
     134:	10 e0       	ldi	r17, 0x00	; 0
     136:	a0 e6       	ldi	r26, 0x60	; 96
     138:	b0 e0       	ldi	r27, 0x00	; 0
     13a:	e8 ed       	ldi	r30, 0xD8	; 216
     13c:	f1 e1       	ldi	r31, 0x11	; 17
     13e:	02 c0       	rjmp	.+4      	; 0x144 <__do_copy_data+0x10>
     140:	05 90       	lpm	r0, Z+
     142:	0d 92       	st	X+, r0
     144:	a4 3a       	cpi	r26, 0xA4	; 164
     146:	b1 07       	cpc	r27, r17
     148:	d9 f7       	brne	.-10     	; 0x140 <__do_copy_data+0xc>

0000014a <__do_clear_bss>:
     14a:	21 e0       	ldi	r18, 0x01	; 1
     14c:	a4 ea       	ldi	r26, 0xA4	; 164
     14e:	b0 e0       	ldi	r27, 0x00	; 0
     150:	01 c0       	rjmp	.+2      	; 0x154 <.do_clear_bss_start>

00000152 <.do_clear_bss_loop>:
     152:	1d 92       	st	X+, r1

00000154 <.do_clear_bss_start>:
     154:	a8 34       	cpi	r26, 0x48	; 72
     156:	b2 07       	cpc	r27, r18
     158:	e1 f7       	brne	.-8      	; 0x152 <.do_clear_bss_loop>
     15a:	02 d1       	rcall	.+516    	; 0x360 <main>
     15c:	3b c8       	rjmp	.-3978   	; 0xfffff1d4 <__eeprom_end+0xff7ef1d4>

0000015e <__bad_interrupt>:
     15e:	50 cf       	rjmp	.-352    	; 0x0 <__vectors>

00000160 <adc_init>:
//float aref,char inref
//-------------------------------------------------------------------------
void adc_init(unsigned char flag,float uaref)
{

	if (flag==1)
     160:	81 30       	cpi	r24, 0x01	; 1
     162:	69 f4       	brne	.+26     	; 0x17e <adc_init+0x1e>
	{
		Uaref=2.56;
     164:	8a e0       	ldi	r24, 0x0A	; 10
     166:	97 ed       	ldi	r25, 0xD7	; 215
     168:	a3 e2       	ldi	r26, 0x23	; 35
     16a:	b0 e4       	ldi	r27, 0x40	; 64
     16c:	80 93 a4 00 	sts	0x00A4, r24	; 0x8000a4 <__data_end>
     170:	90 93 a5 00 	sts	0x00A5, r25	; 0x8000a5 <__data_end+0x1>
     174:	a0 93 a6 00 	sts	0x00A6, r26	; 0x8000a6 <__data_end+0x2>
     178:	b0 93 a7 00 	sts	0x00A7, r27	; 0x8000a7 <__data_end+0x3>
     17c:	08 95       	ret

	}
	else if (flag==2)
     17e:	82 30       	cpi	r24, 0x02	; 2
     180:	69 f4       	brne	.+26     	; 0x19c <adc_init+0x3c>
	{
		ADMUX|=(1<<REFS0);	//внешнее опорное напряжение
     182:	3e 9a       	sbi	0x07, 6	; 7
		ADCSRA|=(1<<ADPS0)|(1<<ADPS1)|(1<<ADPS2)|(1<<ADEN);	//частота преобразование 128кГц и разерешение использовать перобарзователь
     184:	86 b1       	in	r24, 0x06	; 6
     186:	87 68       	ori	r24, 0x87	; 135
     188:	86 b9       	out	0x06, r24	; 6
		ADCSRA|=(1<<ADSC);			//вкл. преобразователь
     18a:	36 9a       	sbi	0x06, 6	; 6
		Uaref=uaref;
     18c:	40 93 a4 00 	sts	0x00A4, r20	; 0x8000a4 <__data_end>
     190:	50 93 a5 00 	sts	0x00A5, r21	; 0x8000a5 <__data_end+0x1>
     194:	60 93 a6 00 	sts	0x00A6, r22	; 0x8000a6 <__data_end+0x2>
     198:	70 93 a7 00 	sts	0x00A7, r23	; 0x8000a7 <__data_end+0x3>
     19c:	08 95       	ret

0000019e <adc_data>:
//-------------------------------------------------------------------------

unsigned int adc_data(unsigned char ch)
{

	ADMUX=ch|(ADMUX&0xF0);
     19e:	97 b1       	in	r25, 0x07	; 7
     1a0:	90 7f       	andi	r25, 0xF0	; 240
     1a2:	89 2b       	or	r24, r25
     1a4:	87 b9       	out	0x07, r24	; 7
	#else
		//round up by default
		__ticks_dc = (uint32_t)(ceil(fabs(__tmp)));
	#endif

	__builtin_avr_delay_cycles(__ticks_dc);
     1a6:	8a e1       	ldi	r24, 0x1A	; 26
     1a8:	8a 95       	dec	r24
     1aa:	f1 f7       	brne	.-4      	; 0x1a8 <adc_data+0xa>
     1ac:	00 c0       	rjmp	.+0      	; 0x1ae <adc_data+0x10>
	_delay_us(10);
	ADCSRA|=(1<<ADSC);
     1ae:	36 9a       	sbi	0x06, 6	; 6
	while((ADCSRA&(1<<ADIF))==0);
     1b0:	34 9b       	sbis	0x06, 4	; 6
     1b2:	fe cf       	rjmp	.-4      	; 0x1b0 <adc_data+0x12>
	
	return ADCW;
     1b4:	84 b1       	in	r24, 0x04	; 4
     1b6:	95 b1       	in	r25, 0x05	; 5
}
     1b8:	08 95       	ret

000001ba <OutPin>:
	LCDGotoXY(x,y);
	for(i=0;(uint8_t)pgm_read_byte(&FlashLoc[i]);i++)
	{
		LCDdata((uint8_t)pgm_read_byte(&FlashLoc[i]));
	}
}
     1ba:	81 b3       	in	r24, 0x11	; 17
     1bc:	80 6f       	ori	r24, 0xF0	; 240
     1be:	81 bb       	out	0x11, r24	; 17
     1c0:	82 b3       	in	r24, 0x12	; 18
     1c2:	8f 70       	andi	r24, 0x0F	; 15
     1c4:	82 bb       	out	0x12, r24	; 18
     1c6:	08 95       	ret

000001c8 <Strob>:
     1c8:	92 9a       	sbi	0x12, 2	; 18
     1ca:	82 e0       	ldi	r24, 0x02	; 2
     1cc:	8a 95       	dec	r24
     1ce:	f1 f7       	brne	.-4      	; 0x1cc <Strob+0x4>
     1d0:	00 c0       	rjmp	.+0      	; 0x1d2 <Strob+0xa>
     1d2:	92 98       	cbi	0x12, 2	; 18
     1d4:	08 95       	ret

000001d6 <Busy_flag>:
     1d6:	cf 93       	push	r28
     1d8:	81 b3       	in	r24, 0x11	; 17
     1da:	8f 70       	andi	r24, 0x0F	; 15
     1dc:	81 bb       	out	0x11, r24	; 17
     1de:	82 b3       	in	r24, 0x12	; 18
     1e0:	80 6f       	ori	r24, 0xF0	; 240
     1e2:	82 bb       	out	0x12, r24	; 18
     1e4:	91 9a       	sbi	0x12, 1	; 18
     1e6:	92 9a       	sbi	0x12, 2	; 18
     1e8:	00 00       	nop
     1ea:	00 00       	nop
     1ec:	c0 b3       	in	r28, 0x10	; 16
     1ee:	92 98       	cbi	0x12, 2	; 18
     1f0:	00 00       	nop
     1f2:	00 00       	nop
     1f4:	e9 df       	rcall	.-46     	; 0x1c8 <Strob>
     1f6:	00 00       	nop
     1f8:	00 00       	nop
     1fa:	cc 23       	and	r28, r28
     1fc:	a4 f3       	brlt	.-24     	; 0x1e6 <Busy_flag+0x10>
     1fe:	91 98       	cbi	0x12, 1	; 18
     200:	cf 91       	pop	r28
     202:	08 95       	ret

00000204 <Send_byte>:
     204:	cf 93       	push	r28
     206:	df 93       	push	r29
     208:	d8 2f       	mov	r29, r24
     20a:	d7 df       	rcall	.-82     	; 0x1ba <OutPin>
     20c:	9d 2f       	mov	r25, r29
     20e:	92 95       	swap	r25
     210:	9f 70       	andi	r25, 0x0F	; 15
     212:	cd 2f       	mov	r28, r29
     214:	cf 70       	andi	r28, 0x0F	; 15
     216:	90 fd       	sbrc	r25, 0
     218:	94 9a       	sbi	0x12, 4	; 18
     21a:	96 95       	lsr	r25
     21c:	90 fd       	sbrc	r25, 0
     21e:	95 9a       	sbi	0x12, 5	; 18
     220:	96 95       	lsr	r25
     222:	90 fd       	sbrc	r25, 0
     224:	96 9a       	sbi	0x12, 6	; 18
     226:	96 95       	lsr	r25
     228:	09 f0       	breq	.+2      	; 0x22c <Send_byte+0x28>
     22a:	97 9a       	sbi	0x12, 7	; 18
     22c:	cd df       	rcall	.-102    	; 0x1c8 <Strob>
     22e:	c5 df       	rcall	.-118    	; 0x1ba <OutPin>
     230:	d0 fd       	sbrc	r29, 0
     232:	94 9a       	sbi	0x12, 4	; 18
     234:	8c 2f       	mov	r24, r28
     236:	86 95       	lsr	r24
     238:	80 fd       	sbrc	r24, 0
     23a:	95 9a       	sbi	0x12, 5	; 18
     23c:	86 95       	lsr	r24
     23e:	80 fd       	sbrc	r24, 0
     240:	96 9a       	sbi	0x12, 6	; 18
     242:	86 95       	lsr	r24
     244:	09 f0       	breq	.+2      	; 0x248 <Send_byte+0x44>
     246:	97 9a       	sbi	0x12, 7	; 18
     248:	bf df       	rcall	.-130    	; 0x1c8 <Strob>
     24a:	81 b3       	in	r24, 0x11	; 17
     24c:	8f 70       	andi	r24, 0x0F	; 15
     24e:	81 bb       	out	0x11, r24	; 17
     250:	82 b3       	in	r24, 0x12	; 18
     252:	8f 70       	andi	r24, 0x0F	; 15
     254:	82 bb       	out	0x12, r24	; 18
     256:	df 91       	pop	r29
     258:	cf 91       	pop	r28
     25a:	08 95       	ret

0000025c <LCDcommand>:
     25c:	cf 93       	push	r28
     25e:	c8 2f       	mov	r28, r24
     260:	ba df       	rcall	.-140    	; 0x1d6 <Busy_flag>
     262:	8c 2f       	mov	r24, r28
     264:	cf df       	rcall	.-98     	; 0x204 <Send_byte>
     266:	cf 91       	pop	r28
     268:	08 95       	ret

0000026a <LCDdata>:
     26a:	cf 93       	push	r28
     26c:	c8 2f       	mov	r28, r24
     26e:	b3 df       	rcall	.-154    	; 0x1d6 <Busy_flag>
     270:	90 9a       	sbi	0x12, 0	; 18
     272:	8c 2f       	mov	r24, r28
     274:	c7 df       	rcall	.-114    	; 0x204 <Send_byte>
     276:	90 98       	cbi	0x12, 0	; 18
     278:	cf 91       	pop	r28
     27a:	08 95       	ret

0000027c <LCDGotoXY>:
     27c:	62 30       	cpi	r22, 0x02	; 2
     27e:	31 f0       	breq	.+12     	; 0x28c <LCDGotoXY+0x10>
     280:	63 30       	cpi	r22, 0x03	; 3
     282:	31 f0       	breq	.+12     	; 0x290 <LCDGotoXY+0x14>
     284:	61 30       	cpi	r22, 0x01	; 1
     286:	29 f4       	brne	.+10     	; 0x292 <LCDGotoXY+0x16>
     288:	80 5c       	subi	r24, 0xC0	; 192
     28a:	03 c0       	rjmp	.+6      	; 0x292 <LCDGotoXY+0x16>
     28c:	8c 5e       	subi	r24, 0xEC	; 236
     28e:	01 c0       	rjmp	.+2      	; 0x292 <LCDGotoXY+0x16>
     290:	8c 5a       	subi	r24, 0xAC	; 172
     292:	80 68       	ori	r24, 0x80	; 128
     294:	e3 df       	rcall	.-58     	; 0x25c <LCDcommand>
     296:	08 95       	ret

00000298 <LCDstringXY>:
     298:	cf 93       	push	r28
     29a:	df 93       	push	r29
     29c:	ec 01       	movw	r28, r24
     29e:	86 2f       	mov	r24, r22
     2a0:	64 2f       	mov	r22, r20
     2a2:	ec df       	rcall	.-40     	; 0x27c <LCDGotoXY>
     2a4:	88 81       	ld	r24, Y
     2a6:	88 23       	and	r24, r24
     2a8:	29 f0       	breq	.+10     	; 0x2b4 <LCDstringXY+0x1c>
     2aa:	21 96       	adiw	r28, 0x01	; 1
     2ac:	de df       	rcall	.-68     	; 0x26a <LCDdata>
     2ae:	89 91       	ld	r24, Y+
     2b0:	81 11       	cpse	r24, r1
     2b2:	fc cf       	rjmp	.-8      	; 0x2ac <LCDstringXY+0x14>
     2b4:	df 91       	pop	r29
     2b6:	cf 91       	pop	r28
     2b8:	08 95       	ret

000002ba <LCDinit>:
void LCDinit(void)							//Инициализируем дисплей
{
     2ba:	cf 93       	push	r28
	#else
		//round up by default
		__ticks_dc = (uint32_t)(ceil(fabs(__tmp)));
	#endif

	__builtin_avr_delay_cycles(__ticks_dc);
     2bc:	2f ef       	ldi	r18, 0xFF	; 255
     2be:	80 e7       	ldi	r24, 0x70	; 112
     2c0:	92 e0       	ldi	r25, 0x02	; 2
     2c2:	21 50       	subi	r18, 0x01	; 1
     2c4:	80 40       	sbci	r24, 0x00	; 0
     2c6:	90 40       	sbci	r25, 0x00	; 0
     2c8:	e1 f7       	brne	.-8      	; 0x2c2 <LCDinit+0x8>
     2ca:	00 c0       	rjmp	.+0      	; 0x2cc <LCDinit+0x12>
     2cc:	00 00       	nop
	//Перед инициализацией LCD, надо в init задержку в 100 мсек сделать, чтоб питание устаканилось. 
	_delay_ms(100);
	CDDR |=  (1<<RS)|(1<<E)|(1<<RW);   //Настройка портов 
     2ce:	81 b3       	in	r24, 0x11	; 17
     2d0:	87 60       	ori	r24, 0x07	; 7
     2d2:	81 bb       	out	0x11, r24	; 17
	CPORT&=~((1<<RS)|(1<<E)|(1<<RW));  //Настройка портов 
     2d4:	82 b3       	in	r24, 0x12	; 18
     2d6:	88 7f       	andi	r24, 0xF8	; 248
     2d8:	82 bb       	out	0x12, r24	; 18
	OutPin();						   //Настройка портов
     2da:	6f df       	rcall	.-290    	; 0x1ba <OutPin>
     2dc:	c3 e0       	ldi	r28, 0x03	; 3
	while (i!=3)
	{
		#ifdef  LCD_8BIT       //отправка символа 0x30.
		        DPORT|=(0<<DB7)|(0<<DB6)|(1<<DB5)|(1<<DB4)|(0<<DB3)|(0<<DB2)|(0<<DB1)|(0<<DB0);
		#else
				DPORT|=(0<<DB7)|(0<<DB6)|(1<<DB5)|(1<<DB4);
     2de:	82 b3       	in	r24, 0x12	; 18
     2e0:	80 63       	ori	r24, 0x30	; 48
     2e2:	82 bb       	out	0x12, r24	; 18
		#endif
		
		Strob();
     2e4:	71 df       	rcall	.-286    	; 0x1c8 <Strob>
     2e6:	8f e0       	ldi	r24, 0x0F	; 15
     2e8:	97 e2       	ldi	r25, 0x27	; 39
     2ea:	01 97       	sbiw	r24, 0x01	; 1
     2ec:	f1 f7       	brne	.-4      	; 0x2ea <LCDinit+0x30>
     2ee:	00 c0       	rjmp	.+0      	; 0x2f0 <LCDinit+0x36>
     2f0:	00 00       	nop
     2f2:	c1 50       	subi	r28, 0x01	; 1
	CDDR |=  (1<<RS)|(1<<E)|(1<<RW);   //Настройка портов 
	CPORT&=~((1<<RS)|(1<<E)|(1<<RW));  //Настройка портов 
	OutPin();						   //Настройка портов
	
	uint8_t i=0;
	while (i!=3)
     2f4:	a1 f7       	brne	.-24     	; 0x2de <LCDinit+0x24>
	//Разминочный этап закончен, далее переходим к основным упражнениям.
	
	#ifdef  LCD_8BIT
			LCDcommand(0b00111000);//8ми битный интерфейс, две строки, 5x8 точек.
	#else   //Первый раз отправляем только пол старшей тетрады
			Busy_flag();
     2f6:	6f df       	rcall	.-290    	; 0x1d6 <Busy_flag>
			OutPin();
     2f8:	60 df       	rcall	.-320    	; 0x1ba <OutPin>
			DPORT|=(0<<DB7)|(0<<DB6)|(1<<DB5)|(0<<DB4);//4х битный интерфейс 
     2fa:	95 9a       	sbi	0x12, 5	; 18
			Strob();
     2fc:	65 df       	rcall	.-310    	; 0x1c8 <Strob>
			LCDcommand(0b00101000);//Две строки, 5x8 точек.
     2fe:	88 e2       	ldi	r24, 0x28	; 40
     300:	ad df       	rcall	.-166    	; 0x25c <LCDcommand>
	#endif
	
	LCDcommand(0b1100);  //Включаем дисплей + без отображения курсоров.
     302:	8c e0       	ldi	r24, 0x0C	; 12
     304:	ab df       	rcall	.-170    	; 0x25c <LCDcommand>
	LCDcommand(0b110);   //Счетчик адреса всегда будет смещаться на n+1
     306:	86 e0       	ldi	r24, 0x06	; 6
     308:	a9 df       	rcall	.-174    	; 0x25c <LCDcommand>
	LCDcommand(0b10);    //курсор в позицию 0,0 + сброс всех сдвигов
     30a:	82 e0       	ldi	r24, 0x02	; 2
     30c:	a7 df       	rcall	.-178    	; 0x25c <LCDcommand>
	LCDcommand(0b1);     //очистка дисплея 
     30e:	81 e0       	ldi	r24, 0x01	; 1
     310:	a5 df       	rcall	.-182    	; 0x25c <LCDcommand>
	//Основные упражнения закончены. Переходим к релаксации.
}
     312:	cf 91       	pop	r28
     314:	08 95       	ret

00000316 <Tempratelm35>:

 */
float Tempratelm35(unsigned char channel)
{
	float temp;
	temp=(adc_data(channel)*5.0)/10.24;
     316:	43 df       	rcall	.-378    	; 0x19e <adc_data>
     318:	bc 01       	movw	r22, r24
     31a:	80 e0       	ldi	r24, 0x00	; 0
     31c:	90 e0       	ldi	r25, 0x00	; 0
     31e:	31 d1       	rcall	.+610    	; 0x582 <__floatunsisf>
     320:	20 e0       	ldi	r18, 0x00	; 0
     322:	30 e0       	ldi	r19, 0x00	; 0
     324:	40 ea       	ldi	r20, 0xA0	; 160
     326:	50 e4       	ldi	r21, 0x40	; 64
     328:	ba d1       	rcall	.+884    	; 0x69e <__mulsf3>
     32a:	2a e0       	ldi	r18, 0x0A	; 10
     32c:	37 ed       	ldi	r19, 0xD7	; 215
     32e:	43 e2       	ldi	r20, 0x23	; 35
     330:	51 e4       	ldi	r21, 0x41	; 65
     332:	bf d0       	rcall	.+382    	; 0x4b2 <__divsf3>
	
	return temp;

}
     334:	08 95       	ret

00000336 <Val_humidity_sensor>:
 */
unsigned char Val_humidity_sensor(unsigned char channel)
{

	unsigned int data;
	data=adc_data(channel);
     336:	33 df       	rcall	.-410    	; 0x19e <adc_data>
	if (data>=0 && data<=300)
     338:	8d 32       	cpi	r24, 0x2D	; 45
     33a:	21 e0       	ldi	r18, 0x01	; 1
     33c:	92 07       	cpc	r25, r18
     33e:	50 f0       	brcs	.+20     	; 0x354 <Val_humidity_sensor+0x1e>
	{
		return LOW_LEVEL_HUMIDITY;
	}
	else if(data>300 && data<=700)
     340:	9c 01       	movw	r18, r24
     342:	2d 52       	subi	r18, 0x2D	; 45
     344:	31 40       	sbci	r19, 0x01	; 1
     346:	20 39       	cpi	r18, 0x90	; 144
     348:	31 40       	sbci	r19, 0x01	; 1
     34a:	30 f0       	brcs	.+12     	; 0x358 <Val_humidity_sensor+0x22>
	{
		return MIDLLE_LEVEL_HUMIDITY;
	}
	else if(data>700)
     34c:	8d 3b       	cpi	r24, 0xBD	; 189
     34e:	92 40       	sbci	r25, 0x02	; 2
     350:	28 f4       	brcc	.+10     	; 0x35c <Val_humidity_sensor+0x26>
     352:	08 95       	ret

	unsigned int data;
	data=adc_data(channel);
	if (data>=0 && data<=300)
	{
		return LOW_LEVEL_HUMIDITY;
     354:	80 e0       	ldi	r24, 0x00	; 0
     356:	08 95       	ret
	}
	else if(data>300 && data<=700)
	{
		return MIDLLE_LEVEL_HUMIDITY;
     358:	81 e0       	ldi	r24, 0x01	; 1
     35a:	08 95       	ret
	}
	else if(data>700)
	{
	return HIGH_LEVEL_HUMIDITY;
     35c:	82 e0       	ldi	r24, 0x02	; 2
	
		

	

}
     35e:	08 95       	ret

00000360 <main>:

int main(void)
{

	portInit();
    adc_init(FLAG_EXTERN_AREF,5.0);
     360:	40 e0       	ldi	r20, 0x00	; 0
     362:	50 e0       	ldi	r21, 0x00	; 0
     364:	60 ea       	ldi	r22, 0xA0	; 160
     366:	70 e4       	ldi	r23, 0x40	; 64
     368:	82 e0       	ldi	r24, 0x02	; 2
     36a:	fa de       	rcall	.-524    	; 0x160 <adc_init>
	LCDinit();
     36c:	a6 df       	rcall	.-180    	; 0x2ba <LCDinit>
    while (1) 
    {
	//================================Работа с датчиком температуры LM35==================
		LCDstringXY("Hello",0,0);
		sprintf(bufferTemp,"Temp=%.1f\1C",Tempratelm35(ADC_CH_1));
     36e:	06 e6       	ldi	r16, 0x66	; 102
     370:	10 e0       	ldi	r17, 0x00	; 0
     372:	c8 ef       	ldi	r28, 0xF8	; 248
     374:	d0 e0       	ldi	r29, 0x00	; 0
		LCDstringXY(buffer,13,3);
		}
		else if (Val_humidity_sensor(ADC_CH_6)==1)
		{
		LCDstringXY("Midle Humanity",0,3);
		sprintf(buffer," %u",Val_humidity_sensor(ADC_CH_6));
     376:	0f 2e       	mov	r0, r31
     378:	f0 e9       	ldi	r31, 0x90	; 144
     37a:	af 2e       	mov	r10, r31
     37c:	f0 e0       	ldi	r31, 0x00	; 0
     37e:	bf 2e       	mov	r11, r31
     380:	f0 2d       	mov	r31, r0
     382:	0f 2e       	mov	r0, r31
     384:	f8 ea       	ldi	r31, 0xA8	; 168
     386:	ef 2e       	mov	r14, r31
     388:	f0 e0       	ldi	r31, 0x00	; 0
     38a:	ff 2e       	mov	r15, r31
     38c:	f0 2d       	mov	r31, r0
		LCDstringXY(bufferTemp,1,2);
		////===============================Работа с датчиком влажности============================
		if (Val_humidity_sensor(ADC_CH_6)==0)
		{
		LCDstringXY("Low   Humanity",0,3);
		sprintf(buffer,"%u",Val_humidity_sensor(ADC_CH_6));
     38e:	0f 2e       	mov	r0, r31
     390:	f1 e9       	ldi	r31, 0x91	; 145
     392:	cf 2e       	mov	r12, r31
     394:	f0 e0       	ldi	r31, 0x00	; 0
     396:	df 2e       	mov	r13, r31
     398:	f0 2d       	mov	r31, r0
    adc_init(FLAG_EXTERN_AREF,5.0);
	LCDinit();
    while (1) 
    {
	//================================Работа с датчиком температуры LM35==================
		LCDstringXY("Hello",0,0);
     39a:	40 e0       	ldi	r20, 0x00	; 0
     39c:	60 e0       	ldi	r22, 0x00	; 0
     39e:	80 e6       	ldi	r24, 0x60	; 96
     3a0:	90 e0       	ldi	r25, 0x00	; 0
     3a2:	7a df       	rcall	.-268    	; 0x298 <LCDstringXY>
		sprintf(bufferTemp,"Temp=%.1f\1C",Tempratelm35(ADC_CH_1));
     3a4:	81 e0       	ldi	r24, 0x01	; 1
     3a6:	b7 df       	rcall	.-146    	; 0x316 <Tempratelm35>
     3a8:	9f 93       	push	r25
     3aa:	8f 93       	push	r24
     3ac:	7f 93       	push	r23
     3ae:	6f 93       	push	r22
     3b0:	1f 93       	push	r17
     3b2:	0f 93       	push	r16
     3b4:	df 93       	push	r29
     3b6:	cf 93       	push	r28
     3b8:	8f d6       	rcall	.+3358   	; 0x10d8 <sprintf>
		LCDstringXY(bufferTemp,1,1);
     3ba:	41 e0       	ldi	r20, 0x01	; 1
     3bc:	61 e0       	ldi	r22, 0x01	; 1
     3be:	ce 01       	movw	r24, r28
     3c0:	6b df       	rcall	.-298    	; 0x298 <LCDstringXY>
		sprintf(bufferTemp,"Temp=%.1f\1C",Tempratelm35(ADC_CH_3));
     3c2:	83 e0       	ldi	r24, 0x03	; 3
     3c4:	a8 df       	rcall	.-176    	; 0x316 <Tempratelm35>
     3c6:	9f 93       	push	r25
     3c8:	8f 93       	push	r24
     3ca:	7f 93       	push	r23
     3cc:	6f 93       	push	r22
     3ce:	1f 93       	push	r17
     3d0:	0f 93       	push	r16
     3d2:	df 93       	push	r29
     3d4:	cf 93       	push	r28
     3d6:	80 d6       	rcall	.+3328   	; 0x10d8 <sprintf>
		LCDstringXY(bufferTemp,1,2);
     3d8:	42 e0       	ldi	r20, 0x02	; 2
     3da:	61 e0       	ldi	r22, 0x01	; 1
     3dc:	ce 01       	movw	r24, r28
     3de:	5c df       	rcall	.-328    	; 0x298 <LCDstringXY>
		////===============================Работа с датчиком влажности============================
		if (Val_humidity_sensor(ADC_CH_6)==0)
     3e0:	86 e0       	ldi	r24, 0x06	; 6
     3e2:	a9 df       	rcall	.-174    	; 0x336 <Val_humidity_sensor>
     3e4:	2d b7       	in	r18, 0x3d	; 61
     3e6:	3e b7       	in	r19, 0x3e	; 62
     3e8:	20 5f       	subi	r18, 0xF0	; 240
     3ea:	3f 4f       	sbci	r19, 0xFF	; 255
     3ec:	0f b6       	in	r0, 0x3f	; 63
     3ee:	f8 94       	cli
     3f0:	3e bf       	out	0x3e, r19	; 62
     3f2:	0f be       	out	0x3f, r0	; 63
     3f4:	2d bf       	out	0x3d, r18	; 61
     3f6:	81 11       	cpse	r24, r1
     3f8:	19 c0       	rjmp	.+50     	; 0x42c <__LOCK_REGION_LENGTH__+0x2c>
		{
		LCDstringXY("Low   Humanity",0,3);
     3fa:	43 e0       	ldi	r20, 0x03	; 3
     3fc:	60 e0       	ldi	r22, 0x00	; 0
     3fe:	82 e7       	ldi	r24, 0x72	; 114
     400:	90 e0       	ldi	r25, 0x00	; 0
     402:	4a df       	rcall	.-364    	; 0x298 <LCDstringXY>
		sprintf(buffer,"%u",Val_humidity_sensor(ADC_CH_6));
     404:	86 e0       	ldi	r24, 0x06	; 6
     406:	97 df       	rcall	.-210    	; 0x336 <Val_humidity_sensor>
     408:	1f 92       	push	r1
     40a:	8f 93       	push	r24
     40c:	df 92       	push	r13
     40e:	cf 92       	push	r12
     410:	ff 92       	push	r15
     412:	ef 92       	push	r14
     414:	61 d6       	rcall	.+3266   	; 0x10d8 <sprintf>
		LCDstringXY(buffer,13,3);
     416:	43 e0       	ldi	r20, 0x03	; 3
     418:	6d e0       	ldi	r22, 0x0D	; 13
     41a:	c7 01       	movw	r24, r14
     41c:	3d df       	rcall	.-390    	; 0x298 <LCDstringXY>
     41e:	0f 90       	pop	r0
     420:	0f 90       	pop	r0
     422:	0f 90       	pop	r0
     424:	0f 90       	pop	r0
     426:	0f 90       	pop	r0
     428:	0f 90       	pop	r0
     42a:	39 c0       	rjmp	.+114    	; 0x49e <__stack+0x3f>
		}
		else if (Val_humidity_sensor(ADC_CH_6)==2)
     42c:	86 e0       	ldi	r24, 0x06	; 6
     42e:	83 df       	rcall	.-250    	; 0x336 <Val_humidity_sensor>
     430:	82 30       	cpi	r24, 0x02	; 2
     432:	c9 f4       	brne	.+50     	; 0x466 <__stack+0x7>
		{
		LCDstringXY("High  Humanity",0,3);
     434:	43 e0       	ldi	r20, 0x03	; 3
     436:	60 e0       	ldi	r22, 0x00	; 0
     438:	81 e8       	ldi	r24, 0x81	; 129
     43a:	90 e0       	ldi	r25, 0x00	; 0
     43c:	2d df       	rcall	.-422    	; 0x298 <LCDstringXY>
		sprintf(buffer," %u",Val_humidity_sensor(ADC_CH_6));
     43e:	86 e0       	ldi	r24, 0x06	; 6
     440:	7a df       	rcall	.-268    	; 0x336 <Val_humidity_sensor>
     442:	1f 92       	push	r1
     444:	8f 93       	push	r24
     446:	bf 92       	push	r11
     448:	af 92       	push	r10
     44a:	ff 92       	push	r15
     44c:	ef 92       	push	r14
     44e:	44 d6       	rcall	.+3208   	; 0x10d8 <sprintf>
		LCDstringXY(buffer,13,3);
     450:	43 e0       	ldi	r20, 0x03	; 3
     452:	6d e0       	ldi	r22, 0x0D	; 13
     454:	c7 01       	movw	r24, r14
     456:	20 df       	rcall	.-448    	; 0x298 <LCDstringXY>
     458:	0f 90       	pop	r0
     45a:	0f 90       	pop	r0
     45c:	0f 90       	pop	r0
     45e:	0f 90       	pop	r0
     460:	0f 90       	pop	r0
     462:	0f 90       	pop	r0
     464:	1c c0       	rjmp	.+56     	; 0x49e <__stack+0x3f>
		}
		else if (Val_humidity_sensor(ADC_CH_6)==1)
     466:	86 e0       	ldi	r24, 0x06	; 6
     468:	66 df       	rcall	.-308    	; 0x336 <Val_humidity_sensor>
     46a:	81 30       	cpi	r24, 0x01	; 1
     46c:	c1 f4       	brne	.+48     	; 0x49e <__stack+0x3f>
		{
		LCDstringXY("Midle Humanity",0,3);
     46e:	43 e0       	ldi	r20, 0x03	; 3
     470:	60 e0       	ldi	r22, 0x00	; 0
     472:	84 e9       	ldi	r24, 0x94	; 148
     474:	90 e0       	ldi	r25, 0x00	; 0
     476:	10 df       	rcall	.-480    	; 0x298 <LCDstringXY>
		sprintf(buffer," %u",Val_humidity_sensor(ADC_CH_6));
     478:	86 e0       	ldi	r24, 0x06	; 6
     47a:	5d df       	rcall	.-326    	; 0x336 <Val_humidity_sensor>
     47c:	1f 92       	push	r1
     47e:	8f 93       	push	r24
     480:	bf 92       	push	r11
     482:	af 92       	push	r10
     484:	ff 92       	push	r15
     486:	ef 92       	push	r14
     488:	27 d6       	rcall	.+3150   	; 0x10d8 <sprintf>
		LCDstringXY(buffer,13,3);
     48a:	43 e0       	ldi	r20, 0x03	; 3
     48c:	6d e0       	ldi	r22, 0x0D	; 13
     48e:	c7 01       	movw	r24, r14
     490:	03 df       	rcall	.-506    	; 0x298 <LCDstringXY>
     492:	0f 90       	pop	r0
     494:	0f 90       	pop	r0
     496:	0f 90       	pop	r0
     498:	0f 90       	pop	r0
     49a:	0f 90       	pop	r0
     49c:	0f 90       	pop	r0
     49e:	3f ef       	ldi	r19, 0xFF	; 255
     4a0:	81 ee       	ldi	r24, 0xE1	; 225
     4a2:	94 e0       	ldi	r25, 0x04	; 4
     4a4:	31 50       	subi	r19, 0x01	; 1
     4a6:	80 40       	sbci	r24, 0x00	; 0
     4a8:	90 40       	sbci	r25, 0x00	; 0
     4aa:	e1 f7       	brne	.-8      	; 0x4a4 <__stack+0x45>
     4ac:	00 c0       	rjmp	.+0      	; 0x4ae <__stack+0x4f>
     4ae:	00 00       	nop
     4b0:	74 cf       	rjmp	.-280    	; 0x39a <main+0x3a>

000004b2 <__divsf3>:
     4b2:	0c d0       	rcall	.+24     	; 0x4cc <__divsf3x>
     4b4:	ba c0       	rjmp	.+372    	; 0x62a <__fp_round>
     4b6:	b2 d0       	rcall	.+356    	; 0x61c <__fp_pscB>
     4b8:	40 f0       	brcs	.+16     	; 0x4ca <__divsf3+0x18>
     4ba:	a9 d0       	rcall	.+338    	; 0x60e <__fp_pscA>
     4bc:	30 f0       	brcs	.+12     	; 0x4ca <__divsf3+0x18>
     4be:	21 f4       	brne	.+8      	; 0x4c8 <__divsf3+0x16>
     4c0:	5f 3f       	cpi	r21, 0xFF	; 255
     4c2:	19 f0       	breq	.+6      	; 0x4ca <__divsf3+0x18>
     4c4:	9b c0       	rjmp	.+310    	; 0x5fc <__fp_inf>
     4c6:	51 11       	cpse	r21, r1
     4c8:	e4 c0       	rjmp	.+456    	; 0x692 <__fp_szero>
     4ca:	9e c0       	rjmp	.+316    	; 0x608 <__fp_nan>

000004cc <__divsf3x>:
     4cc:	bf d0       	rcall	.+382    	; 0x64c <__fp_split3>
     4ce:	98 f3       	brcs	.-26     	; 0x4b6 <__divsf3+0x4>

000004d0 <__divsf3_pse>:
     4d0:	99 23       	and	r25, r25
     4d2:	c9 f3       	breq	.-14     	; 0x4c6 <__divsf3+0x14>
     4d4:	55 23       	and	r21, r21
     4d6:	b1 f3       	breq	.-20     	; 0x4c4 <__divsf3+0x12>
     4d8:	95 1b       	sub	r25, r21
     4da:	55 0b       	sbc	r21, r21
     4dc:	bb 27       	eor	r27, r27
     4de:	aa 27       	eor	r26, r26
     4e0:	62 17       	cp	r22, r18
     4e2:	73 07       	cpc	r23, r19
     4e4:	84 07       	cpc	r24, r20
     4e6:	38 f0       	brcs	.+14     	; 0x4f6 <__divsf3_pse+0x26>
     4e8:	9f 5f       	subi	r25, 0xFF	; 255
     4ea:	5f 4f       	sbci	r21, 0xFF	; 255
     4ec:	22 0f       	add	r18, r18
     4ee:	33 1f       	adc	r19, r19
     4f0:	44 1f       	adc	r20, r20
     4f2:	aa 1f       	adc	r26, r26
     4f4:	a9 f3       	breq	.-22     	; 0x4e0 <__divsf3_pse+0x10>
     4f6:	33 d0       	rcall	.+102    	; 0x55e <__divsf3_pse+0x8e>
     4f8:	0e 2e       	mov	r0, r30
     4fa:	3a f0       	brmi	.+14     	; 0x50a <__divsf3_pse+0x3a>
     4fc:	e0 e8       	ldi	r30, 0x80	; 128
     4fe:	30 d0       	rcall	.+96     	; 0x560 <__divsf3_pse+0x90>
     500:	91 50       	subi	r25, 0x01	; 1
     502:	50 40       	sbci	r21, 0x00	; 0
     504:	e6 95       	lsr	r30
     506:	00 1c       	adc	r0, r0
     508:	ca f7       	brpl	.-14     	; 0x4fc <__divsf3_pse+0x2c>
     50a:	29 d0       	rcall	.+82     	; 0x55e <__divsf3_pse+0x8e>
     50c:	fe 2f       	mov	r31, r30
     50e:	27 d0       	rcall	.+78     	; 0x55e <__divsf3_pse+0x8e>
     510:	66 0f       	add	r22, r22
     512:	77 1f       	adc	r23, r23
     514:	88 1f       	adc	r24, r24
     516:	bb 1f       	adc	r27, r27
     518:	26 17       	cp	r18, r22
     51a:	37 07       	cpc	r19, r23
     51c:	48 07       	cpc	r20, r24
     51e:	ab 07       	cpc	r26, r27
     520:	b0 e8       	ldi	r27, 0x80	; 128
     522:	09 f0       	breq	.+2      	; 0x526 <__divsf3_pse+0x56>
     524:	bb 0b       	sbc	r27, r27
     526:	80 2d       	mov	r24, r0
     528:	bf 01       	movw	r22, r30
     52a:	ff 27       	eor	r31, r31
     52c:	93 58       	subi	r25, 0x83	; 131
     52e:	5f 4f       	sbci	r21, 0xFF	; 255
     530:	2a f0       	brmi	.+10     	; 0x53c <__divsf3_pse+0x6c>
     532:	9e 3f       	cpi	r25, 0xFE	; 254
     534:	51 05       	cpc	r21, r1
     536:	68 f0       	brcs	.+26     	; 0x552 <__divsf3_pse+0x82>
     538:	61 c0       	rjmp	.+194    	; 0x5fc <__fp_inf>
     53a:	ab c0       	rjmp	.+342    	; 0x692 <__fp_szero>
     53c:	5f 3f       	cpi	r21, 0xFF	; 255
     53e:	ec f3       	brlt	.-6      	; 0x53a <__divsf3_pse+0x6a>
     540:	98 3e       	cpi	r25, 0xE8	; 232
     542:	dc f3       	brlt	.-10     	; 0x53a <__divsf3_pse+0x6a>
     544:	86 95       	lsr	r24
     546:	77 95       	ror	r23
     548:	67 95       	ror	r22
     54a:	b7 95       	ror	r27
     54c:	f7 95       	ror	r31
     54e:	9f 5f       	subi	r25, 0xFF	; 255
     550:	c9 f7       	brne	.-14     	; 0x544 <__divsf3_pse+0x74>
     552:	88 0f       	add	r24, r24
     554:	91 1d       	adc	r25, r1
     556:	96 95       	lsr	r25
     558:	87 95       	ror	r24
     55a:	97 f9       	bld	r25, 7
     55c:	08 95       	ret
     55e:	e1 e0       	ldi	r30, 0x01	; 1
     560:	66 0f       	add	r22, r22
     562:	77 1f       	adc	r23, r23
     564:	88 1f       	adc	r24, r24
     566:	bb 1f       	adc	r27, r27
     568:	62 17       	cp	r22, r18
     56a:	73 07       	cpc	r23, r19
     56c:	84 07       	cpc	r24, r20
     56e:	ba 07       	cpc	r27, r26
     570:	20 f0       	brcs	.+8      	; 0x57a <__divsf3_pse+0xaa>
     572:	62 1b       	sub	r22, r18
     574:	73 0b       	sbc	r23, r19
     576:	84 0b       	sbc	r24, r20
     578:	ba 0b       	sbc	r27, r26
     57a:	ee 1f       	adc	r30, r30
     57c:	88 f7       	brcc	.-30     	; 0x560 <__divsf3_pse+0x90>
     57e:	e0 95       	com	r30
     580:	08 95       	ret

00000582 <__floatunsisf>:
     582:	e8 94       	clt
     584:	09 c0       	rjmp	.+18     	; 0x598 <__floatsisf+0x12>

00000586 <__floatsisf>:
     586:	97 fb       	bst	r25, 7
     588:	3e f4       	brtc	.+14     	; 0x598 <__floatsisf+0x12>
     58a:	90 95       	com	r25
     58c:	80 95       	com	r24
     58e:	70 95       	com	r23
     590:	61 95       	neg	r22
     592:	7f 4f       	sbci	r23, 0xFF	; 255
     594:	8f 4f       	sbci	r24, 0xFF	; 255
     596:	9f 4f       	sbci	r25, 0xFF	; 255
     598:	99 23       	and	r25, r25
     59a:	a9 f0       	breq	.+42     	; 0x5c6 <__floatsisf+0x40>
     59c:	f9 2f       	mov	r31, r25
     59e:	96 e9       	ldi	r25, 0x96	; 150
     5a0:	bb 27       	eor	r27, r27
     5a2:	93 95       	inc	r25
     5a4:	f6 95       	lsr	r31
     5a6:	87 95       	ror	r24
     5a8:	77 95       	ror	r23
     5aa:	67 95       	ror	r22
     5ac:	b7 95       	ror	r27
     5ae:	f1 11       	cpse	r31, r1
     5b0:	f8 cf       	rjmp	.-16     	; 0x5a2 <__floatsisf+0x1c>
     5b2:	fa f4       	brpl	.+62     	; 0x5f2 <__floatsisf+0x6c>
     5b4:	bb 0f       	add	r27, r27
     5b6:	11 f4       	brne	.+4      	; 0x5bc <__floatsisf+0x36>
     5b8:	60 ff       	sbrs	r22, 0
     5ba:	1b c0       	rjmp	.+54     	; 0x5f2 <__floatsisf+0x6c>
     5bc:	6f 5f       	subi	r22, 0xFF	; 255
     5be:	7f 4f       	sbci	r23, 0xFF	; 255
     5c0:	8f 4f       	sbci	r24, 0xFF	; 255
     5c2:	9f 4f       	sbci	r25, 0xFF	; 255
     5c4:	16 c0       	rjmp	.+44     	; 0x5f2 <__floatsisf+0x6c>
     5c6:	88 23       	and	r24, r24
     5c8:	11 f0       	breq	.+4      	; 0x5ce <__floatsisf+0x48>
     5ca:	96 e9       	ldi	r25, 0x96	; 150
     5cc:	11 c0       	rjmp	.+34     	; 0x5f0 <__floatsisf+0x6a>
     5ce:	77 23       	and	r23, r23
     5d0:	21 f0       	breq	.+8      	; 0x5da <__floatsisf+0x54>
     5d2:	9e e8       	ldi	r25, 0x8E	; 142
     5d4:	87 2f       	mov	r24, r23
     5d6:	76 2f       	mov	r23, r22
     5d8:	05 c0       	rjmp	.+10     	; 0x5e4 <__floatsisf+0x5e>
     5da:	66 23       	and	r22, r22
     5dc:	71 f0       	breq	.+28     	; 0x5fa <__floatsisf+0x74>
     5de:	96 e8       	ldi	r25, 0x86	; 134
     5e0:	86 2f       	mov	r24, r22
     5e2:	70 e0       	ldi	r23, 0x00	; 0
     5e4:	60 e0       	ldi	r22, 0x00	; 0
     5e6:	2a f0       	brmi	.+10     	; 0x5f2 <__floatsisf+0x6c>
     5e8:	9a 95       	dec	r25
     5ea:	66 0f       	add	r22, r22
     5ec:	77 1f       	adc	r23, r23
     5ee:	88 1f       	adc	r24, r24
     5f0:	da f7       	brpl	.-10     	; 0x5e8 <__floatsisf+0x62>
     5f2:	88 0f       	add	r24, r24
     5f4:	96 95       	lsr	r25
     5f6:	87 95       	ror	r24
     5f8:	97 f9       	bld	r25, 7
     5fa:	08 95       	ret

000005fc <__fp_inf>:
     5fc:	97 f9       	bld	r25, 7
     5fe:	9f 67       	ori	r25, 0x7F	; 127
     600:	80 e8       	ldi	r24, 0x80	; 128
     602:	70 e0       	ldi	r23, 0x00	; 0
     604:	60 e0       	ldi	r22, 0x00	; 0
     606:	08 95       	ret

00000608 <__fp_nan>:
     608:	9f ef       	ldi	r25, 0xFF	; 255
     60a:	80 ec       	ldi	r24, 0xC0	; 192
     60c:	08 95       	ret

0000060e <__fp_pscA>:
     60e:	00 24       	eor	r0, r0
     610:	0a 94       	dec	r0
     612:	16 16       	cp	r1, r22
     614:	17 06       	cpc	r1, r23
     616:	18 06       	cpc	r1, r24
     618:	09 06       	cpc	r0, r25
     61a:	08 95       	ret

0000061c <__fp_pscB>:
     61c:	00 24       	eor	r0, r0
     61e:	0a 94       	dec	r0
     620:	12 16       	cp	r1, r18
     622:	13 06       	cpc	r1, r19
     624:	14 06       	cpc	r1, r20
     626:	05 06       	cpc	r0, r21
     628:	08 95       	ret

0000062a <__fp_round>:
     62a:	09 2e       	mov	r0, r25
     62c:	03 94       	inc	r0
     62e:	00 0c       	add	r0, r0
     630:	11 f4       	brne	.+4      	; 0x636 <__fp_round+0xc>
     632:	88 23       	and	r24, r24
     634:	52 f0       	brmi	.+20     	; 0x64a <__fp_round+0x20>
     636:	bb 0f       	add	r27, r27
     638:	40 f4       	brcc	.+16     	; 0x64a <__fp_round+0x20>
     63a:	bf 2b       	or	r27, r31
     63c:	11 f4       	brne	.+4      	; 0x642 <__fp_round+0x18>
     63e:	60 ff       	sbrs	r22, 0
     640:	04 c0       	rjmp	.+8      	; 0x64a <__fp_round+0x20>
     642:	6f 5f       	subi	r22, 0xFF	; 255
     644:	7f 4f       	sbci	r23, 0xFF	; 255
     646:	8f 4f       	sbci	r24, 0xFF	; 255
     648:	9f 4f       	sbci	r25, 0xFF	; 255
     64a:	08 95       	ret

0000064c <__fp_split3>:
     64c:	57 fd       	sbrc	r21, 7
     64e:	90 58       	subi	r25, 0x80	; 128
     650:	44 0f       	add	r20, r20
     652:	55 1f       	adc	r21, r21
     654:	59 f0       	breq	.+22     	; 0x66c <__fp_splitA+0x10>
     656:	5f 3f       	cpi	r21, 0xFF	; 255
     658:	71 f0       	breq	.+28     	; 0x676 <__fp_splitA+0x1a>
     65a:	47 95       	ror	r20

0000065c <__fp_splitA>:
     65c:	88 0f       	add	r24, r24
     65e:	97 fb       	bst	r25, 7
     660:	99 1f       	adc	r25, r25
     662:	61 f0       	breq	.+24     	; 0x67c <__fp_splitA+0x20>
     664:	9f 3f       	cpi	r25, 0xFF	; 255
     666:	79 f0       	breq	.+30     	; 0x686 <__fp_splitA+0x2a>
     668:	87 95       	ror	r24
     66a:	08 95       	ret
     66c:	12 16       	cp	r1, r18
     66e:	13 06       	cpc	r1, r19
     670:	14 06       	cpc	r1, r20
     672:	55 1f       	adc	r21, r21
     674:	f2 cf       	rjmp	.-28     	; 0x65a <__fp_split3+0xe>
     676:	46 95       	lsr	r20
     678:	f1 df       	rcall	.-30     	; 0x65c <__fp_splitA>
     67a:	08 c0       	rjmp	.+16     	; 0x68c <__fp_splitA+0x30>
     67c:	16 16       	cp	r1, r22
     67e:	17 06       	cpc	r1, r23
     680:	18 06       	cpc	r1, r24
     682:	99 1f       	adc	r25, r25
     684:	f1 cf       	rjmp	.-30     	; 0x668 <__fp_splitA+0xc>
     686:	86 95       	lsr	r24
     688:	71 05       	cpc	r23, r1
     68a:	61 05       	cpc	r22, r1
     68c:	08 94       	sec
     68e:	08 95       	ret

00000690 <__fp_zero>:
     690:	e8 94       	clt

00000692 <__fp_szero>:
     692:	bb 27       	eor	r27, r27
     694:	66 27       	eor	r22, r22
     696:	77 27       	eor	r23, r23
     698:	cb 01       	movw	r24, r22
     69a:	97 f9       	bld	r25, 7
     69c:	08 95       	ret

0000069e <__mulsf3>:
     69e:	0b d0       	rcall	.+22     	; 0x6b6 <__mulsf3x>
     6a0:	c4 cf       	rjmp	.-120    	; 0x62a <__fp_round>
     6a2:	b5 df       	rcall	.-150    	; 0x60e <__fp_pscA>
     6a4:	28 f0       	brcs	.+10     	; 0x6b0 <__mulsf3+0x12>
     6a6:	ba df       	rcall	.-140    	; 0x61c <__fp_pscB>
     6a8:	18 f0       	brcs	.+6      	; 0x6b0 <__mulsf3+0x12>
     6aa:	95 23       	and	r25, r21
     6ac:	09 f0       	breq	.+2      	; 0x6b0 <__mulsf3+0x12>
     6ae:	a6 cf       	rjmp	.-180    	; 0x5fc <__fp_inf>
     6b0:	ab cf       	rjmp	.-170    	; 0x608 <__fp_nan>
     6b2:	11 24       	eor	r1, r1
     6b4:	ee cf       	rjmp	.-36     	; 0x692 <__fp_szero>

000006b6 <__mulsf3x>:
     6b6:	ca df       	rcall	.-108    	; 0x64c <__fp_split3>
     6b8:	a0 f3       	brcs	.-24     	; 0x6a2 <__mulsf3+0x4>

000006ba <__mulsf3_pse>:
     6ba:	95 9f       	mul	r25, r21
     6bc:	d1 f3       	breq	.-12     	; 0x6b2 <__mulsf3+0x14>
     6be:	95 0f       	add	r25, r21
     6c0:	50 e0       	ldi	r21, 0x00	; 0
     6c2:	55 1f       	adc	r21, r21
     6c4:	62 9f       	mul	r22, r18
     6c6:	f0 01       	movw	r30, r0
     6c8:	72 9f       	mul	r23, r18
     6ca:	bb 27       	eor	r27, r27
     6cc:	f0 0d       	add	r31, r0
     6ce:	b1 1d       	adc	r27, r1
     6d0:	63 9f       	mul	r22, r19
     6d2:	aa 27       	eor	r26, r26
     6d4:	f0 0d       	add	r31, r0
     6d6:	b1 1d       	adc	r27, r1
     6d8:	aa 1f       	adc	r26, r26
     6da:	64 9f       	mul	r22, r20
     6dc:	66 27       	eor	r22, r22
     6de:	b0 0d       	add	r27, r0
     6e0:	a1 1d       	adc	r26, r1
     6e2:	66 1f       	adc	r22, r22
     6e4:	82 9f       	mul	r24, r18
     6e6:	22 27       	eor	r18, r18
     6e8:	b0 0d       	add	r27, r0
     6ea:	a1 1d       	adc	r26, r1
     6ec:	62 1f       	adc	r22, r18
     6ee:	73 9f       	mul	r23, r19
     6f0:	b0 0d       	add	r27, r0
     6f2:	a1 1d       	adc	r26, r1
     6f4:	62 1f       	adc	r22, r18
     6f6:	83 9f       	mul	r24, r19
     6f8:	a0 0d       	add	r26, r0
     6fa:	61 1d       	adc	r22, r1
     6fc:	22 1f       	adc	r18, r18
     6fe:	74 9f       	mul	r23, r20
     700:	33 27       	eor	r19, r19
     702:	a0 0d       	add	r26, r0
     704:	61 1d       	adc	r22, r1
     706:	23 1f       	adc	r18, r19
     708:	84 9f       	mul	r24, r20
     70a:	60 0d       	add	r22, r0
     70c:	21 1d       	adc	r18, r1
     70e:	82 2f       	mov	r24, r18
     710:	76 2f       	mov	r23, r22
     712:	6a 2f       	mov	r22, r26
     714:	11 24       	eor	r1, r1
     716:	9f 57       	subi	r25, 0x7F	; 127
     718:	50 40       	sbci	r21, 0x00	; 0
     71a:	8a f0       	brmi	.+34     	; 0x73e <__mulsf3_pse+0x84>
     71c:	e1 f0       	breq	.+56     	; 0x756 <__mulsf3_pse+0x9c>
     71e:	88 23       	and	r24, r24
     720:	4a f0       	brmi	.+18     	; 0x734 <__mulsf3_pse+0x7a>
     722:	ee 0f       	add	r30, r30
     724:	ff 1f       	adc	r31, r31
     726:	bb 1f       	adc	r27, r27
     728:	66 1f       	adc	r22, r22
     72a:	77 1f       	adc	r23, r23
     72c:	88 1f       	adc	r24, r24
     72e:	91 50       	subi	r25, 0x01	; 1
     730:	50 40       	sbci	r21, 0x00	; 0
     732:	a9 f7       	brne	.-22     	; 0x71e <__mulsf3_pse+0x64>
     734:	9e 3f       	cpi	r25, 0xFE	; 254
     736:	51 05       	cpc	r21, r1
     738:	70 f0       	brcs	.+28     	; 0x756 <__mulsf3_pse+0x9c>
     73a:	60 cf       	rjmp	.-320    	; 0x5fc <__fp_inf>
     73c:	aa cf       	rjmp	.-172    	; 0x692 <__fp_szero>
     73e:	5f 3f       	cpi	r21, 0xFF	; 255
     740:	ec f3       	brlt	.-6      	; 0x73c <__mulsf3_pse+0x82>
     742:	98 3e       	cpi	r25, 0xE8	; 232
     744:	dc f3       	brlt	.-10     	; 0x73c <__mulsf3_pse+0x82>
     746:	86 95       	lsr	r24
     748:	77 95       	ror	r23
     74a:	67 95       	ror	r22
     74c:	b7 95       	ror	r27
     74e:	f7 95       	ror	r31
     750:	e7 95       	ror	r30
     752:	9f 5f       	subi	r25, 0xFF	; 255
     754:	c1 f7       	brne	.-16     	; 0x746 <__mulsf3_pse+0x8c>
     756:	fe 2b       	or	r31, r30
     758:	88 0f       	add	r24, r24
     75a:	91 1d       	adc	r25, r1
     75c:	96 95       	lsr	r25
     75e:	87 95       	ror	r24
     760:	97 f9       	bld	r25, 7
     762:	08 95       	ret

00000764 <vfprintf>:
     764:	a3 e1       	ldi	r26, 0x13	; 19
     766:	b0 e0       	ldi	r27, 0x00	; 0
     768:	e7 eb       	ldi	r30, 0xB7	; 183
     76a:	f3 e0       	ldi	r31, 0x03	; 3
     76c:	58 c3       	rjmp	.+1712   	; 0xe1e <__prologue_saves__>
     76e:	6c 01       	movw	r12, r24
     770:	4b 01       	movw	r8, r22
     772:	2a 01       	movw	r4, r20
     774:	fc 01       	movw	r30, r24
     776:	17 82       	std	Z+7, r1	; 0x07
     778:	16 82       	std	Z+6, r1	; 0x06
     77a:	83 81       	ldd	r24, Z+3	; 0x03
     77c:	81 ff       	sbrs	r24, 1
     77e:	29 c3       	rjmp	.+1618   	; 0xdd2 <vfprintf+0x66e>
     780:	ae 01       	movw	r20, r28
     782:	4f 5f       	subi	r20, 0xFF	; 255
     784:	5f 4f       	sbci	r21, 0xFF	; 255
     786:	3a 01       	movw	r6, r20
     788:	f6 01       	movw	r30, r12
     78a:	93 81       	ldd	r25, Z+3	; 0x03
     78c:	f4 01       	movw	r30, r8
     78e:	93 fd       	sbrc	r25, 3
     790:	85 91       	lpm	r24, Z+
     792:	93 ff       	sbrs	r25, 3
     794:	81 91       	ld	r24, Z+
     796:	4f 01       	movw	r8, r30
     798:	88 23       	and	r24, r24
     79a:	09 f4       	brne	.+2      	; 0x79e <vfprintf+0x3a>
     79c:	16 c3       	rjmp	.+1580   	; 0xdca <vfprintf+0x666>
     79e:	85 32       	cpi	r24, 0x25	; 37
     7a0:	39 f4       	brne	.+14     	; 0x7b0 <vfprintf+0x4c>
     7a2:	93 fd       	sbrc	r25, 3
     7a4:	85 91       	lpm	r24, Z+
     7a6:	93 ff       	sbrs	r25, 3
     7a8:	81 91       	ld	r24, Z+
     7aa:	4f 01       	movw	r8, r30
     7ac:	85 32       	cpi	r24, 0x25	; 37
     7ae:	31 f4       	brne	.+12     	; 0x7bc <vfprintf+0x58>
     7b0:	b6 01       	movw	r22, r12
     7b2:	90 e0       	ldi	r25, 0x00	; 0
     7b4:	59 d4       	rcall	.+2226   	; 0x1068 <fputc>
     7b6:	52 01       	movw	r10, r4
     7b8:	25 01       	movw	r4, r10
     7ba:	e6 cf       	rjmp	.-52     	; 0x788 <vfprintf+0x24>
     7bc:	10 e0       	ldi	r17, 0x00	; 0
     7be:	f1 2c       	mov	r15, r1
     7c0:	20 e0       	ldi	r18, 0x00	; 0
     7c2:	20 32       	cpi	r18, 0x20	; 32
     7c4:	a0 f4       	brcc	.+40     	; 0x7ee <vfprintf+0x8a>
     7c6:	8b 32       	cpi	r24, 0x2B	; 43
     7c8:	69 f0       	breq	.+26     	; 0x7e4 <vfprintf+0x80>
     7ca:	30 f4       	brcc	.+12     	; 0x7d8 <vfprintf+0x74>
     7cc:	80 32       	cpi	r24, 0x20	; 32
     7ce:	59 f0       	breq	.+22     	; 0x7e6 <vfprintf+0x82>
     7d0:	83 32       	cpi	r24, 0x23	; 35
     7d2:	69 f4       	brne	.+26     	; 0x7ee <vfprintf+0x8a>
     7d4:	20 61       	ori	r18, 0x10	; 16
     7d6:	2c c0       	rjmp	.+88     	; 0x830 <vfprintf+0xcc>
     7d8:	8d 32       	cpi	r24, 0x2D	; 45
     7da:	39 f0       	breq	.+14     	; 0x7ea <vfprintf+0x86>
     7dc:	80 33       	cpi	r24, 0x30	; 48
     7de:	39 f4       	brne	.+14     	; 0x7ee <vfprintf+0x8a>
     7e0:	21 60       	ori	r18, 0x01	; 1
     7e2:	26 c0       	rjmp	.+76     	; 0x830 <vfprintf+0xcc>
     7e4:	22 60       	ori	r18, 0x02	; 2
     7e6:	24 60       	ori	r18, 0x04	; 4
     7e8:	23 c0       	rjmp	.+70     	; 0x830 <vfprintf+0xcc>
     7ea:	28 60       	ori	r18, 0x08	; 8
     7ec:	21 c0       	rjmp	.+66     	; 0x830 <vfprintf+0xcc>
     7ee:	27 fd       	sbrc	r18, 7
     7f0:	27 c0       	rjmp	.+78     	; 0x840 <vfprintf+0xdc>
     7f2:	30 ed       	ldi	r19, 0xD0	; 208
     7f4:	38 0f       	add	r19, r24
     7f6:	3a 30       	cpi	r19, 0x0A	; 10
     7f8:	78 f4       	brcc	.+30     	; 0x818 <vfprintf+0xb4>
     7fa:	26 ff       	sbrs	r18, 6
     7fc:	06 c0       	rjmp	.+12     	; 0x80a <vfprintf+0xa6>
     7fe:	fa e0       	ldi	r31, 0x0A	; 10
     800:	1f 9f       	mul	r17, r31
     802:	30 0d       	add	r19, r0
     804:	11 24       	eor	r1, r1
     806:	13 2f       	mov	r17, r19
     808:	13 c0       	rjmp	.+38     	; 0x830 <vfprintf+0xcc>
     80a:	4a e0       	ldi	r20, 0x0A	; 10
     80c:	f4 9e       	mul	r15, r20
     80e:	30 0d       	add	r19, r0
     810:	11 24       	eor	r1, r1
     812:	f3 2e       	mov	r15, r19
     814:	20 62       	ori	r18, 0x20	; 32
     816:	0c c0       	rjmp	.+24     	; 0x830 <vfprintf+0xcc>
     818:	8e 32       	cpi	r24, 0x2E	; 46
     81a:	21 f4       	brne	.+8      	; 0x824 <vfprintf+0xc0>
     81c:	26 fd       	sbrc	r18, 6
     81e:	d5 c2       	rjmp	.+1450   	; 0xdca <vfprintf+0x666>
     820:	20 64       	ori	r18, 0x40	; 64
     822:	06 c0       	rjmp	.+12     	; 0x830 <vfprintf+0xcc>
     824:	8c 36       	cpi	r24, 0x6C	; 108
     826:	11 f4       	brne	.+4      	; 0x82c <vfprintf+0xc8>
     828:	20 68       	ori	r18, 0x80	; 128
     82a:	02 c0       	rjmp	.+4      	; 0x830 <vfprintf+0xcc>
     82c:	88 36       	cpi	r24, 0x68	; 104
     82e:	41 f4       	brne	.+16     	; 0x840 <vfprintf+0xdc>
     830:	f4 01       	movw	r30, r8
     832:	93 fd       	sbrc	r25, 3
     834:	85 91       	lpm	r24, Z+
     836:	93 ff       	sbrs	r25, 3
     838:	81 91       	ld	r24, Z+
     83a:	4f 01       	movw	r8, r30
     83c:	81 11       	cpse	r24, r1
     83e:	c1 cf       	rjmp	.-126    	; 0x7c2 <vfprintf+0x5e>
     840:	9b eb       	ldi	r25, 0xBB	; 187
     842:	98 0f       	add	r25, r24
     844:	93 30       	cpi	r25, 0x03	; 3
     846:	18 f4       	brcc	.+6      	; 0x84e <vfprintf+0xea>
     848:	20 61       	ori	r18, 0x10	; 16
     84a:	80 5e       	subi	r24, 0xE0	; 224
     84c:	06 c0       	rjmp	.+12     	; 0x85a <vfprintf+0xf6>
     84e:	9b e9       	ldi	r25, 0x9B	; 155
     850:	98 0f       	add	r25, r24
     852:	93 30       	cpi	r25, 0x03	; 3
     854:	08 f0       	brcs	.+2      	; 0x858 <vfprintf+0xf4>
     856:	64 c1       	rjmp	.+712    	; 0xb20 <vfprintf+0x3bc>
     858:	2f 7e       	andi	r18, 0xEF	; 239
     85a:	26 ff       	sbrs	r18, 6
     85c:	16 e0       	ldi	r17, 0x06	; 6
     85e:	2f 73       	andi	r18, 0x3F	; 63
     860:	32 2e       	mov	r3, r18
     862:	85 36       	cpi	r24, 0x65	; 101
     864:	19 f4       	brne	.+6      	; 0x86c <vfprintf+0x108>
     866:	20 64       	ori	r18, 0x40	; 64
     868:	32 2e       	mov	r3, r18
     86a:	08 c0       	rjmp	.+16     	; 0x87c <vfprintf+0x118>
     86c:	86 36       	cpi	r24, 0x66	; 102
     86e:	21 f4       	brne	.+8      	; 0x878 <vfprintf+0x114>
     870:	f2 2f       	mov	r31, r18
     872:	f0 68       	ori	r31, 0x80	; 128
     874:	3f 2e       	mov	r3, r31
     876:	02 c0       	rjmp	.+4      	; 0x87c <vfprintf+0x118>
     878:	11 11       	cpse	r17, r1
     87a:	11 50       	subi	r17, 0x01	; 1
     87c:	37 fe       	sbrs	r3, 7
     87e:	07 c0       	rjmp	.+14     	; 0x88e <vfprintf+0x12a>
     880:	1c 33       	cpi	r17, 0x3C	; 60
     882:	50 f4       	brcc	.+20     	; 0x898 <vfprintf+0x134>
     884:	ee 24       	eor	r14, r14
     886:	e3 94       	inc	r14
     888:	e1 0e       	add	r14, r17
     88a:	27 e0       	ldi	r18, 0x07	; 7
     88c:	0b c0       	rjmp	.+22     	; 0x8a4 <vfprintf+0x140>
     88e:	18 30       	cpi	r17, 0x08	; 8
     890:	38 f0       	brcs	.+14     	; 0x8a0 <vfprintf+0x13c>
     892:	27 e0       	ldi	r18, 0x07	; 7
     894:	17 e0       	ldi	r17, 0x07	; 7
     896:	05 c0       	rjmp	.+10     	; 0x8a2 <vfprintf+0x13e>
     898:	27 e0       	ldi	r18, 0x07	; 7
     89a:	4c e3       	ldi	r20, 0x3C	; 60
     89c:	e4 2e       	mov	r14, r20
     89e:	02 c0       	rjmp	.+4      	; 0x8a4 <vfprintf+0x140>
     8a0:	21 2f       	mov	r18, r17
     8a2:	e1 2c       	mov	r14, r1
     8a4:	52 01       	movw	r10, r4
     8a6:	44 e0       	ldi	r20, 0x04	; 4
     8a8:	a4 0e       	add	r10, r20
     8aa:	b1 1c       	adc	r11, r1
     8ac:	f2 01       	movw	r30, r4
     8ae:	60 81       	ld	r22, Z
     8b0:	71 81       	ldd	r23, Z+1	; 0x01
     8b2:	82 81       	ldd	r24, Z+2	; 0x02
     8b4:	93 81       	ldd	r25, Z+3	; 0x03
     8b6:	0e 2d       	mov	r16, r14
     8b8:	a3 01       	movw	r20, r6
     8ba:	e8 d2       	rcall	.+1488   	; 0xe8c <__ftoa_engine>
     8bc:	2c 01       	movw	r4, r24
     8be:	09 81       	ldd	r16, Y+1	; 0x01
     8c0:	00 ff       	sbrs	r16, 0
     8c2:	02 c0       	rjmp	.+4      	; 0x8c8 <vfprintf+0x164>
     8c4:	03 ff       	sbrs	r16, 3
     8c6:	07 c0       	rjmp	.+14     	; 0x8d6 <vfprintf+0x172>
     8c8:	31 fc       	sbrc	r3, 1
     8ca:	08 c0       	rjmp	.+16     	; 0x8dc <vfprintf+0x178>
     8cc:	32 fe       	sbrs	r3, 2
     8ce:	09 c0       	rjmp	.+18     	; 0x8e2 <vfprintf+0x17e>
     8d0:	30 e2       	ldi	r19, 0x20	; 32
     8d2:	23 2e       	mov	r2, r19
     8d4:	07 c0       	rjmp	.+14     	; 0x8e4 <vfprintf+0x180>
     8d6:	2d e2       	ldi	r18, 0x2D	; 45
     8d8:	22 2e       	mov	r2, r18
     8da:	04 c0       	rjmp	.+8      	; 0x8e4 <vfprintf+0x180>
     8dc:	9b e2       	ldi	r25, 0x2B	; 43
     8de:	29 2e       	mov	r2, r25
     8e0:	01 c0       	rjmp	.+2      	; 0x8e4 <vfprintf+0x180>
     8e2:	21 2c       	mov	r2, r1
     8e4:	80 2f       	mov	r24, r16
     8e6:	8c 70       	andi	r24, 0x0C	; 12
     8e8:	19 f0       	breq	.+6      	; 0x8f0 <vfprintf+0x18c>
     8ea:	21 10       	cpse	r2, r1
     8ec:	51 c2       	rjmp	.+1186   	; 0xd90 <vfprintf+0x62c>
     8ee:	8d c2       	rjmp	.+1306   	; 0xe0a <vfprintf+0x6a6>
     8f0:	37 fe       	sbrs	r3, 7
     8f2:	0f c0       	rjmp	.+30     	; 0x912 <vfprintf+0x1ae>
     8f4:	e4 0c       	add	r14, r4
     8f6:	04 ff       	sbrs	r16, 4
     8f8:	04 c0       	rjmp	.+8      	; 0x902 <vfprintf+0x19e>
     8fa:	8a 81       	ldd	r24, Y+2	; 0x02
     8fc:	81 33       	cpi	r24, 0x31	; 49
     8fe:	09 f4       	brne	.+2      	; 0x902 <vfprintf+0x19e>
     900:	ea 94       	dec	r14
     902:	1e 14       	cp	r1, r14
     904:	74 f5       	brge	.+92     	; 0x962 <vfprintf+0x1fe>
     906:	f8 e0       	ldi	r31, 0x08	; 8
     908:	fe 15       	cp	r31, r14
     90a:	78 f5       	brcc	.+94     	; 0x96a <vfprintf+0x206>
     90c:	88 e0       	ldi	r24, 0x08	; 8
     90e:	e8 2e       	mov	r14, r24
     910:	2c c0       	rjmp	.+88     	; 0x96a <vfprintf+0x206>
     912:	36 fc       	sbrc	r3, 6
     914:	2a c0       	rjmp	.+84     	; 0x96a <vfprintf+0x206>
     916:	81 2f       	mov	r24, r17
     918:	90 e0       	ldi	r25, 0x00	; 0
     91a:	84 15       	cp	r24, r4
     91c:	95 05       	cpc	r25, r5
     91e:	9c f0       	brlt	.+38     	; 0x946 <vfprintf+0x1e2>
     920:	2c ef       	ldi	r18, 0xFC	; 252
     922:	42 16       	cp	r4, r18
     924:	2f ef       	ldi	r18, 0xFF	; 255
     926:	52 06       	cpc	r5, r18
     928:	74 f0       	brlt	.+28     	; 0x946 <vfprintf+0x1e2>
     92a:	43 2d       	mov	r20, r3
     92c:	40 68       	ori	r20, 0x80	; 128
     92e:	34 2e       	mov	r3, r20
     930:	0a c0       	rjmp	.+20     	; 0x946 <vfprintf+0x1e2>
     932:	e2 e0       	ldi	r30, 0x02	; 2
     934:	f0 e0       	ldi	r31, 0x00	; 0
     936:	ec 0f       	add	r30, r28
     938:	fd 1f       	adc	r31, r29
     93a:	e1 0f       	add	r30, r17
     93c:	f1 1d       	adc	r31, r1
     93e:	80 81       	ld	r24, Z
     940:	80 33       	cpi	r24, 0x30	; 48
     942:	19 f4       	brne	.+6      	; 0x94a <vfprintf+0x1e6>
     944:	11 50       	subi	r17, 0x01	; 1
     946:	11 11       	cpse	r17, r1
     948:	f4 cf       	rjmp	.-24     	; 0x932 <vfprintf+0x1ce>
     94a:	37 fe       	sbrs	r3, 7
     94c:	0e c0       	rjmp	.+28     	; 0x96a <vfprintf+0x206>
     94e:	ee 24       	eor	r14, r14
     950:	e3 94       	inc	r14
     952:	e1 0e       	add	r14, r17
     954:	81 2f       	mov	r24, r17
     956:	90 e0       	ldi	r25, 0x00	; 0
     958:	48 16       	cp	r4, r24
     95a:	59 06       	cpc	r5, r25
     95c:	2c f4       	brge	.+10     	; 0x968 <vfprintf+0x204>
     95e:	14 19       	sub	r17, r4
     960:	04 c0       	rjmp	.+8      	; 0x96a <vfprintf+0x206>
     962:	ee 24       	eor	r14, r14
     964:	e3 94       	inc	r14
     966:	01 c0       	rjmp	.+2      	; 0x96a <vfprintf+0x206>
     968:	10 e0       	ldi	r17, 0x00	; 0
     96a:	37 fe       	sbrs	r3, 7
     96c:	06 c0       	rjmp	.+12     	; 0x97a <vfprintf+0x216>
     96e:	14 14       	cp	r1, r4
     970:	15 04       	cpc	r1, r5
     972:	34 f4       	brge	.+12     	; 0x980 <vfprintf+0x21c>
     974:	c2 01       	movw	r24, r4
     976:	01 96       	adiw	r24, 0x01	; 1
     978:	05 c0       	rjmp	.+10     	; 0x984 <vfprintf+0x220>
     97a:	85 e0       	ldi	r24, 0x05	; 5
     97c:	90 e0       	ldi	r25, 0x00	; 0
     97e:	02 c0       	rjmp	.+4      	; 0x984 <vfprintf+0x220>
     980:	81 e0       	ldi	r24, 0x01	; 1
     982:	90 e0       	ldi	r25, 0x00	; 0
     984:	21 10       	cpse	r2, r1
     986:	01 96       	adiw	r24, 0x01	; 1
     988:	11 23       	and	r17, r17
     98a:	31 f0       	breq	.+12     	; 0x998 <vfprintf+0x234>
     98c:	21 2f       	mov	r18, r17
     98e:	30 e0       	ldi	r19, 0x00	; 0
     990:	2f 5f       	subi	r18, 0xFF	; 255
     992:	3f 4f       	sbci	r19, 0xFF	; 255
     994:	82 0f       	add	r24, r18
     996:	93 1f       	adc	r25, r19
     998:	2f 2d       	mov	r18, r15
     99a:	30 e0       	ldi	r19, 0x00	; 0
     99c:	82 17       	cp	r24, r18
     99e:	93 07       	cpc	r25, r19
     9a0:	14 f4       	brge	.+4      	; 0x9a6 <vfprintf+0x242>
     9a2:	f8 1a       	sub	r15, r24
     9a4:	01 c0       	rjmp	.+2      	; 0x9a8 <vfprintf+0x244>
     9a6:	f1 2c       	mov	r15, r1
     9a8:	83 2d       	mov	r24, r3
     9aa:	89 70       	andi	r24, 0x09	; 9
     9ac:	41 f4       	brne	.+16     	; 0x9be <vfprintf+0x25a>
     9ae:	ff 20       	and	r15, r15
     9b0:	31 f0       	breq	.+12     	; 0x9be <vfprintf+0x25a>
     9b2:	b6 01       	movw	r22, r12
     9b4:	80 e2       	ldi	r24, 0x20	; 32
     9b6:	90 e0       	ldi	r25, 0x00	; 0
     9b8:	57 d3       	rcall	.+1710   	; 0x1068 <fputc>
     9ba:	fa 94       	dec	r15
     9bc:	f8 cf       	rjmp	.-16     	; 0x9ae <vfprintf+0x24a>
     9be:	22 20       	and	r2, r2
     9c0:	21 f0       	breq	.+8      	; 0x9ca <vfprintf+0x266>
     9c2:	b6 01       	movw	r22, r12
     9c4:	82 2d       	mov	r24, r2
     9c6:	90 e0       	ldi	r25, 0x00	; 0
     9c8:	4f d3       	rcall	.+1694   	; 0x1068 <fputc>
     9ca:	33 fc       	sbrc	r3, 3
     9cc:	08 c0       	rjmp	.+16     	; 0x9de <vfprintf+0x27a>
     9ce:	ff 20       	and	r15, r15
     9d0:	31 f0       	breq	.+12     	; 0x9de <vfprintf+0x27a>
     9d2:	b6 01       	movw	r22, r12
     9d4:	80 e3       	ldi	r24, 0x30	; 48
     9d6:	90 e0       	ldi	r25, 0x00	; 0
     9d8:	47 d3       	rcall	.+1678   	; 0x1068 <fputc>
     9da:	fa 94       	dec	r15
     9dc:	f8 cf       	rjmp	.-16     	; 0x9ce <vfprintf+0x26a>
     9de:	37 fe       	sbrs	r3, 7
     9e0:	58 c0       	rjmp	.+176    	; 0xa92 <vfprintf+0x32e>
     9e2:	94 2d       	mov	r25, r4
     9e4:	85 2d       	mov	r24, r5
     9e6:	57 fe       	sbrs	r5, 7
     9e8:	02 c0       	rjmp	.+4      	; 0x9ee <vfprintf+0x28a>
     9ea:	90 e0       	ldi	r25, 0x00	; 0
     9ec:	80 e0       	ldi	r24, 0x00	; 0
     9ee:	29 2e       	mov	r2, r25
     9f0:	38 2e       	mov	r3, r24
     9f2:	20 e0       	ldi	r18, 0x00	; 0
     9f4:	30 e0       	ldi	r19, 0x00	; 0
     9f6:	a2 01       	movw	r20, r4
     9f8:	4e 19       	sub	r20, r14
     9fa:	51 09       	sbc	r21, r1
     9fc:	5d 87       	std	Y+13, r21	; 0x0d
     9fe:	4c 87       	std	Y+12, r20	; 0x0c
     a00:	a2 01       	movw	r20, r4
     a02:	42 19       	sub	r20, r2
     a04:	53 09       	sbc	r21, r3
     a06:	5f 87       	std	Y+15, r21	; 0x0f
     a08:	4e 87       	std	Y+14, r20	; 0x0e
     a0a:	61 2f       	mov	r22, r17
     a0c:	70 e0       	ldi	r23, 0x00	; 0
     a0e:	44 27       	eor	r20, r20
     a10:	55 27       	eor	r21, r21
     a12:	46 1b       	sub	r20, r22
     a14:	57 0b       	sbc	r21, r23
     a16:	59 8b       	std	Y+17, r21	; 0x11
     a18:	48 8b       	std	Y+16, r20	; 0x10
     a1a:	5f ef       	ldi	r21, 0xFF	; 255
     a1c:	25 16       	cp	r2, r21
     a1e:	35 06       	cpc	r3, r21
     a20:	41 f4       	brne	.+16     	; 0xa32 <vfprintf+0x2ce>
     a22:	b6 01       	movw	r22, r12
     a24:	8e e2       	ldi	r24, 0x2E	; 46
     a26:	90 e0       	ldi	r25, 0x00	; 0
     a28:	2a 8b       	std	Y+18, r18	; 0x12
     a2a:	3b 8b       	std	Y+19, r19	; 0x13
     a2c:	1d d3       	rcall	.+1594   	; 0x1068 <fputc>
     a2e:	3b 89       	ldd	r19, Y+19	; 0x13
     a30:	2a 89       	ldd	r18, Y+18	; 0x12
     a32:	42 14       	cp	r4, r2
     a34:	53 04       	cpc	r5, r3
     a36:	6c f0       	brlt	.+26     	; 0xa52 <vfprintf+0x2ee>
     a38:	4c 85       	ldd	r20, Y+12	; 0x0c
     a3a:	5d 85       	ldd	r21, Y+13	; 0x0d
     a3c:	42 15       	cp	r20, r2
     a3e:	53 05       	cpc	r21, r3
     a40:	44 f4       	brge	.+16     	; 0xa52 <vfprintf+0x2ee>
     a42:	ee 85       	ldd	r30, Y+14	; 0x0e
     a44:	ff 85       	ldd	r31, Y+15	; 0x0f
     a46:	e2 0f       	add	r30, r18
     a48:	f3 1f       	adc	r31, r19
     a4a:	e6 0d       	add	r30, r6
     a4c:	f7 1d       	adc	r31, r7
     a4e:	81 81       	ldd	r24, Z+1	; 0x01
     a50:	01 c0       	rjmp	.+2      	; 0xa54 <vfprintf+0x2f0>
     a52:	80 e3       	ldi	r24, 0x30	; 48
     a54:	51 e0       	ldi	r21, 0x01	; 1
     a56:	25 1a       	sub	r2, r21
     a58:	31 08       	sbc	r3, r1
     a5a:	2f 5f       	subi	r18, 0xFF	; 255
     a5c:	3f 4f       	sbci	r19, 0xFF	; 255
     a5e:	48 89       	ldd	r20, Y+16	; 0x10
     a60:	59 89       	ldd	r21, Y+17	; 0x11
     a62:	24 16       	cp	r2, r20
     a64:	35 06       	cpc	r3, r21
     a66:	44 f0       	brlt	.+16     	; 0xa78 <vfprintf+0x314>
     a68:	b6 01       	movw	r22, r12
     a6a:	90 e0       	ldi	r25, 0x00	; 0
     a6c:	2a 8b       	std	Y+18, r18	; 0x12
     a6e:	3b 8b       	std	Y+19, r19	; 0x13
     a70:	fb d2       	rcall	.+1526   	; 0x1068 <fputc>
     a72:	2a 89       	ldd	r18, Y+18	; 0x12
     a74:	3b 89       	ldd	r19, Y+19	; 0x13
     a76:	d1 cf       	rjmp	.-94     	; 0xa1a <vfprintf+0x2b6>
     a78:	24 14       	cp	r2, r4
     a7a:	35 04       	cpc	r3, r5
     a7c:	39 f4       	brne	.+14     	; 0xa8c <vfprintf+0x328>
     a7e:	9a 81       	ldd	r25, Y+2	; 0x02
     a80:	96 33       	cpi	r25, 0x36	; 54
     a82:	18 f4       	brcc	.+6      	; 0xa8a <vfprintf+0x326>
     a84:	95 33       	cpi	r25, 0x35	; 53
     a86:	11 f4       	brne	.+4      	; 0xa8c <vfprintf+0x328>
     a88:	04 ff       	sbrs	r16, 4
     a8a:	81 e3       	ldi	r24, 0x31	; 49
     a8c:	b6 01       	movw	r22, r12
     a8e:	90 e0       	ldi	r25, 0x00	; 0
     a90:	45 c0       	rjmp	.+138    	; 0xb1c <vfprintf+0x3b8>
     a92:	8a 81       	ldd	r24, Y+2	; 0x02
     a94:	81 33       	cpi	r24, 0x31	; 49
     a96:	09 f0       	breq	.+2      	; 0xa9a <vfprintf+0x336>
     a98:	0f 7e       	andi	r16, 0xEF	; 239
     a9a:	b6 01       	movw	r22, r12
     a9c:	90 e0       	ldi	r25, 0x00	; 0
     a9e:	e4 d2       	rcall	.+1480   	; 0x1068 <fputc>
     aa0:	11 11       	cpse	r17, r1
     aa2:	05 c0       	rjmp	.+10     	; 0xaae <vfprintf+0x34a>
     aa4:	34 fc       	sbrc	r3, 4
     aa6:	16 c0       	rjmp	.+44     	; 0xad4 <vfprintf+0x370>
     aa8:	85 e6       	ldi	r24, 0x65	; 101
     aaa:	90 e0       	ldi	r25, 0x00	; 0
     aac:	15 c0       	rjmp	.+42     	; 0xad8 <vfprintf+0x374>
     aae:	b6 01       	movw	r22, r12
     ab0:	8e e2       	ldi	r24, 0x2E	; 46
     ab2:	90 e0       	ldi	r25, 0x00	; 0
     ab4:	d9 d2       	rcall	.+1458   	; 0x1068 <fputc>
     ab6:	82 e0       	ldi	r24, 0x02	; 2
     ab8:	ee 24       	eor	r14, r14
     aba:	e3 94       	inc	r14
     abc:	e8 0e       	add	r14, r24
     abe:	f3 01       	movw	r30, r6
     ac0:	e8 0f       	add	r30, r24
     ac2:	f1 1d       	adc	r31, r1
     ac4:	80 81       	ld	r24, Z
     ac6:	b6 01       	movw	r22, r12
     ac8:	90 e0       	ldi	r25, 0x00	; 0
     aca:	ce d2       	rcall	.+1436   	; 0x1068 <fputc>
     acc:	11 50       	subi	r17, 0x01	; 1
     ace:	8e 2d       	mov	r24, r14
     ad0:	99 f7       	brne	.-26     	; 0xab8 <vfprintf+0x354>
     ad2:	e8 cf       	rjmp	.-48     	; 0xaa4 <vfprintf+0x340>
     ad4:	85 e4       	ldi	r24, 0x45	; 69
     ad6:	90 e0       	ldi	r25, 0x00	; 0
     ad8:	b6 01       	movw	r22, r12
     ada:	c6 d2       	rcall	.+1420   	; 0x1068 <fputc>
     adc:	57 fc       	sbrc	r5, 7
     ade:	05 c0       	rjmp	.+10     	; 0xaea <vfprintf+0x386>
     ae0:	41 14       	cp	r4, r1
     ae2:	51 04       	cpc	r5, r1
     ae4:	39 f4       	brne	.+14     	; 0xaf4 <vfprintf+0x390>
     ae6:	04 ff       	sbrs	r16, 4
     ae8:	05 c0       	rjmp	.+10     	; 0xaf4 <vfprintf+0x390>
     aea:	51 94       	neg	r5
     aec:	41 94       	neg	r4
     aee:	51 08       	sbc	r5, r1
     af0:	8d e2       	ldi	r24, 0x2D	; 45
     af2:	01 c0       	rjmp	.+2      	; 0xaf6 <vfprintf+0x392>
     af4:	8b e2       	ldi	r24, 0x2B	; 43
     af6:	b6 01       	movw	r22, r12
     af8:	90 e0       	ldi	r25, 0x00	; 0
     afa:	b6 d2       	rcall	.+1388   	; 0x1068 <fputc>
     afc:	80 e3       	ldi	r24, 0x30	; 48
     afe:	9a e0       	ldi	r25, 0x0A	; 10
     b00:	49 16       	cp	r4, r25
     b02:	51 04       	cpc	r5, r1
     b04:	2c f0       	brlt	.+10     	; 0xb10 <vfprintf+0x3ac>
     b06:	8f 5f       	subi	r24, 0xFF	; 255
     b08:	5a e0       	ldi	r21, 0x0A	; 10
     b0a:	45 1a       	sub	r4, r21
     b0c:	51 08       	sbc	r5, r1
     b0e:	f7 cf       	rjmp	.-18     	; 0xafe <vfprintf+0x39a>
     b10:	b6 01       	movw	r22, r12
     b12:	90 e0       	ldi	r25, 0x00	; 0
     b14:	a9 d2       	rcall	.+1362   	; 0x1068 <fputc>
     b16:	b6 01       	movw	r22, r12
     b18:	c2 01       	movw	r24, r4
     b1a:	c0 96       	adiw	r24, 0x30	; 48
     b1c:	a5 d2       	rcall	.+1354   	; 0x1068 <fputc>
     b1e:	4c c1       	rjmp	.+664    	; 0xdb8 <vfprintf+0x654>
     b20:	83 36       	cpi	r24, 0x63	; 99
     b22:	31 f0       	breq	.+12     	; 0xb30 <vfprintf+0x3cc>
     b24:	83 37       	cpi	r24, 0x73	; 115
     b26:	79 f0       	breq	.+30     	; 0xb46 <vfprintf+0x3e2>
     b28:	83 35       	cpi	r24, 0x53	; 83
     b2a:	09 f0       	breq	.+2      	; 0xb2e <vfprintf+0x3ca>
     b2c:	54 c0       	rjmp	.+168    	; 0xbd6 <vfprintf+0x472>
     b2e:	20 c0       	rjmp	.+64     	; 0xb70 <vfprintf+0x40c>
     b30:	52 01       	movw	r10, r4
     b32:	e2 e0       	ldi	r30, 0x02	; 2
     b34:	ae 0e       	add	r10, r30
     b36:	b1 1c       	adc	r11, r1
     b38:	f2 01       	movw	r30, r4
     b3a:	80 81       	ld	r24, Z
     b3c:	89 83       	std	Y+1, r24	; 0x01
     b3e:	01 e0       	ldi	r16, 0x01	; 1
     b40:	10 e0       	ldi	r17, 0x00	; 0
     b42:	23 01       	movw	r4, r6
     b44:	13 c0       	rjmp	.+38     	; 0xb6c <vfprintf+0x408>
     b46:	52 01       	movw	r10, r4
     b48:	f2 e0       	ldi	r31, 0x02	; 2
     b4a:	af 0e       	add	r10, r31
     b4c:	b1 1c       	adc	r11, r1
     b4e:	f2 01       	movw	r30, r4
     b50:	40 80       	ld	r4, Z
     b52:	51 80       	ldd	r5, Z+1	; 0x01
     b54:	26 ff       	sbrs	r18, 6
     b56:	03 c0       	rjmp	.+6      	; 0xb5e <vfprintf+0x3fa>
     b58:	61 2f       	mov	r22, r17
     b5a:	70 e0       	ldi	r23, 0x00	; 0
     b5c:	02 c0       	rjmp	.+4      	; 0xb62 <vfprintf+0x3fe>
     b5e:	6f ef       	ldi	r22, 0xFF	; 255
     b60:	7f ef       	ldi	r23, 0xFF	; 255
     b62:	c2 01       	movw	r24, r4
     b64:	2a 8b       	std	Y+18, r18	; 0x12
     b66:	75 d2       	rcall	.+1258   	; 0x1052 <strnlen>
     b68:	8c 01       	movw	r16, r24
     b6a:	2a 89       	ldd	r18, Y+18	; 0x12
     b6c:	2f 77       	andi	r18, 0x7F	; 127
     b6e:	14 c0       	rjmp	.+40     	; 0xb98 <vfprintf+0x434>
     b70:	52 01       	movw	r10, r4
     b72:	f2 e0       	ldi	r31, 0x02	; 2
     b74:	af 0e       	add	r10, r31
     b76:	b1 1c       	adc	r11, r1
     b78:	f2 01       	movw	r30, r4
     b7a:	40 80       	ld	r4, Z
     b7c:	51 80       	ldd	r5, Z+1	; 0x01
     b7e:	26 ff       	sbrs	r18, 6
     b80:	03 c0       	rjmp	.+6      	; 0xb88 <vfprintf+0x424>
     b82:	61 2f       	mov	r22, r17
     b84:	70 e0       	ldi	r23, 0x00	; 0
     b86:	02 c0       	rjmp	.+4      	; 0xb8c <vfprintf+0x428>
     b88:	6f ef       	ldi	r22, 0xFF	; 255
     b8a:	7f ef       	ldi	r23, 0xFF	; 255
     b8c:	c2 01       	movw	r24, r4
     b8e:	2a 8b       	std	Y+18, r18	; 0x12
     b90:	55 d2       	rcall	.+1194   	; 0x103c <strnlen_P>
     b92:	8c 01       	movw	r16, r24
     b94:	2a 89       	ldd	r18, Y+18	; 0x12
     b96:	20 68       	ori	r18, 0x80	; 128
     b98:	32 2e       	mov	r3, r18
     b9a:	23 fd       	sbrc	r18, 3
     b9c:	18 c0       	rjmp	.+48     	; 0xbce <vfprintf+0x46a>
     b9e:	8f 2d       	mov	r24, r15
     ba0:	90 e0       	ldi	r25, 0x00	; 0
     ba2:	08 17       	cp	r16, r24
     ba4:	19 07       	cpc	r17, r25
     ba6:	98 f4       	brcc	.+38     	; 0xbce <vfprintf+0x46a>
     ba8:	b6 01       	movw	r22, r12
     baa:	80 e2       	ldi	r24, 0x20	; 32
     bac:	90 e0       	ldi	r25, 0x00	; 0
     bae:	5c d2       	rcall	.+1208   	; 0x1068 <fputc>
     bb0:	fa 94       	dec	r15
     bb2:	f5 cf       	rjmp	.-22     	; 0xb9e <vfprintf+0x43a>
     bb4:	f2 01       	movw	r30, r4
     bb6:	37 fc       	sbrc	r3, 7
     bb8:	85 91       	lpm	r24, Z+
     bba:	37 fe       	sbrs	r3, 7
     bbc:	81 91       	ld	r24, Z+
     bbe:	2f 01       	movw	r4, r30
     bc0:	b6 01       	movw	r22, r12
     bc2:	90 e0       	ldi	r25, 0x00	; 0
     bc4:	51 d2       	rcall	.+1186   	; 0x1068 <fputc>
     bc6:	f1 10       	cpse	r15, r1
     bc8:	fa 94       	dec	r15
     bca:	01 50       	subi	r16, 0x01	; 1
     bcc:	11 09       	sbc	r17, r1
     bce:	01 15       	cp	r16, r1
     bd0:	11 05       	cpc	r17, r1
     bd2:	81 f7       	brne	.-32     	; 0xbb4 <vfprintf+0x450>
     bd4:	f1 c0       	rjmp	.+482    	; 0xdb8 <vfprintf+0x654>
     bd6:	84 36       	cpi	r24, 0x64	; 100
     bd8:	11 f0       	breq	.+4      	; 0xbde <vfprintf+0x47a>
     bda:	89 36       	cpi	r24, 0x69	; 105
     bdc:	51 f5       	brne	.+84     	; 0xc32 <vfprintf+0x4ce>
     bde:	52 01       	movw	r10, r4
     be0:	27 ff       	sbrs	r18, 7
     be2:	09 c0       	rjmp	.+18     	; 0xbf6 <vfprintf+0x492>
     be4:	f4 e0       	ldi	r31, 0x04	; 4
     be6:	af 0e       	add	r10, r31
     be8:	b1 1c       	adc	r11, r1
     bea:	f2 01       	movw	r30, r4
     bec:	60 81       	ld	r22, Z
     bee:	71 81       	ldd	r23, Z+1	; 0x01
     bf0:	82 81       	ldd	r24, Z+2	; 0x02
     bf2:	93 81       	ldd	r25, Z+3	; 0x03
     bf4:	0a c0       	rjmp	.+20     	; 0xc0a <vfprintf+0x4a6>
     bf6:	f2 e0       	ldi	r31, 0x02	; 2
     bf8:	af 0e       	add	r10, r31
     bfa:	b1 1c       	adc	r11, r1
     bfc:	f2 01       	movw	r30, r4
     bfe:	60 81       	ld	r22, Z
     c00:	71 81       	ldd	r23, Z+1	; 0x01
     c02:	07 2e       	mov	r0, r23
     c04:	00 0c       	add	r0, r0
     c06:	88 0b       	sbc	r24, r24
     c08:	99 0b       	sbc	r25, r25
     c0a:	2f 76       	andi	r18, 0x6F	; 111
     c0c:	32 2e       	mov	r3, r18
     c0e:	97 ff       	sbrs	r25, 7
     c10:	09 c0       	rjmp	.+18     	; 0xc24 <vfprintf+0x4c0>
     c12:	90 95       	com	r25
     c14:	80 95       	com	r24
     c16:	70 95       	com	r23
     c18:	61 95       	neg	r22
     c1a:	7f 4f       	sbci	r23, 0xFF	; 255
     c1c:	8f 4f       	sbci	r24, 0xFF	; 255
     c1e:	9f 4f       	sbci	r25, 0xFF	; 255
     c20:	20 68       	ori	r18, 0x80	; 128
     c22:	32 2e       	mov	r3, r18
     c24:	2a e0       	ldi	r18, 0x0A	; 10
     c26:	30 e0       	ldi	r19, 0x00	; 0
     c28:	a3 01       	movw	r20, r6
     c2a:	76 d2       	rcall	.+1260   	; 0x1118 <__ultoa_invert>
     c2c:	e8 2e       	mov	r14, r24
     c2e:	e6 18       	sub	r14, r6
     c30:	3e c0       	rjmp	.+124    	; 0xcae <vfprintf+0x54a>
     c32:	02 2f       	mov	r16, r18
     c34:	85 37       	cpi	r24, 0x75	; 117
     c36:	21 f4       	brne	.+8      	; 0xc40 <vfprintf+0x4dc>
     c38:	0f 7e       	andi	r16, 0xEF	; 239
     c3a:	2a e0       	ldi	r18, 0x0A	; 10
     c3c:	30 e0       	ldi	r19, 0x00	; 0
     c3e:	1d c0       	rjmp	.+58     	; 0xc7a <vfprintf+0x516>
     c40:	09 7f       	andi	r16, 0xF9	; 249
     c42:	8f 36       	cpi	r24, 0x6F	; 111
     c44:	91 f0       	breq	.+36     	; 0xc6a <vfprintf+0x506>
     c46:	18 f4       	brcc	.+6      	; 0xc4e <vfprintf+0x4ea>
     c48:	88 35       	cpi	r24, 0x58	; 88
     c4a:	59 f0       	breq	.+22     	; 0xc62 <vfprintf+0x4fe>
     c4c:	be c0       	rjmp	.+380    	; 0xdca <vfprintf+0x666>
     c4e:	80 37       	cpi	r24, 0x70	; 112
     c50:	19 f0       	breq	.+6      	; 0xc58 <vfprintf+0x4f4>
     c52:	88 37       	cpi	r24, 0x78	; 120
     c54:	11 f0       	breq	.+4      	; 0xc5a <vfprintf+0x4f6>
     c56:	b9 c0       	rjmp	.+370    	; 0xdca <vfprintf+0x666>
     c58:	00 61       	ori	r16, 0x10	; 16
     c5a:	04 ff       	sbrs	r16, 4
     c5c:	09 c0       	rjmp	.+18     	; 0xc70 <vfprintf+0x50c>
     c5e:	04 60       	ori	r16, 0x04	; 4
     c60:	07 c0       	rjmp	.+14     	; 0xc70 <vfprintf+0x50c>
     c62:	24 ff       	sbrs	r18, 4
     c64:	08 c0       	rjmp	.+16     	; 0xc76 <vfprintf+0x512>
     c66:	06 60       	ori	r16, 0x06	; 6
     c68:	06 c0       	rjmp	.+12     	; 0xc76 <vfprintf+0x512>
     c6a:	28 e0       	ldi	r18, 0x08	; 8
     c6c:	30 e0       	ldi	r19, 0x00	; 0
     c6e:	05 c0       	rjmp	.+10     	; 0xc7a <vfprintf+0x516>
     c70:	20 e1       	ldi	r18, 0x10	; 16
     c72:	30 e0       	ldi	r19, 0x00	; 0
     c74:	02 c0       	rjmp	.+4      	; 0xc7a <vfprintf+0x516>
     c76:	20 e1       	ldi	r18, 0x10	; 16
     c78:	32 e0       	ldi	r19, 0x02	; 2
     c7a:	52 01       	movw	r10, r4
     c7c:	07 ff       	sbrs	r16, 7
     c7e:	09 c0       	rjmp	.+18     	; 0xc92 <vfprintf+0x52e>
     c80:	f4 e0       	ldi	r31, 0x04	; 4
     c82:	af 0e       	add	r10, r31
     c84:	b1 1c       	adc	r11, r1
     c86:	f2 01       	movw	r30, r4
     c88:	60 81       	ld	r22, Z
     c8a:	71 81       	ldd	r23, Z+1	; 0x01
     c8c:	82 81       	ldd	r24, Z+2	; 0x02
     c8e:	93 81       	ldd	r25, Z+3	; 0x03
     c90:	08 c0       	rjmp	.+16     	; 0xca2 <vfprintf+0x53e>
     c92:	f2 e0       	ldi	r31, 0x02	; 2
     c94:	af 0e       	add	r10, r31
     c96:	b1 1c       	adc	r11, r1
     c98:	f2 01       	movw	r30, r4
     c9a:	60 81       	ld	r22, Z
     c9c:	71 81       	ldd	r23, Z+1	; 0x01
     c9e:	80 e0       	ldi	r24, 0x00	; 0
     ca0:	90 e0       	ldi	r25, 0x00	; 0
     ca2:	a3 01       	movw	r20, r6
     ca4:	39 d2       	rcall	.+1138   	; 0x1118 <__ultoa_invert>
     ca6:	e8 2e       	mov	r14, r24
     ca8:	e6 18       	sub	r14, r6
     caa:	0f 77       	andi	r16, 0x7F	; 127
     cac:	30 2e       	mov	r3, r16
     cae:	36 fe       	sbrs	r3, 6
     cb0:	0b c0       	rjmp	.+22     	; 0xcc8 <vfprintf+0x564>
     cb2:	33 2d       	mov	r19, r3
     cb4:	3e 7f       	andi	r19, 0xFE	; 254
     cb6:	e1 16       	cp	r14, r17
     cb8:	50 f4       	brcc	.+20     	; 0xcce <vfprintf+0x56a>
     cba:	34 fe       	sbrs	r3, 4
     cbc:	0a c0       	rjmp	.+20     	; 0xcd2 <vfprintf+0x56e>
     cbe:	32 fc       	sbrc	r3, 2
     cc0:	08 c0       	rjmp	.+16     	; 0xcd2 <vfprintf+0x56e>
     cc2:	33 2d       	mov	r19, r3
     cc4:	3e 7e       	andi	r19, 0xEE	; 238
     cc6:	05 c0       	rjmp	.+10     	; 0xcd2 <vfprintf+0x56e>
     cc8:	0e 2d       	mov	r16, r14
     cca:	33 2d       	mov	r19, r3
     ccc:	03 c0       	rjmp	.+6      	; 0xcd4 <vfprintf+0x570>
     cce:	0e 2d       	mov	r16, r14
     cd0:	01 c0       	rjmp	.+2      	; 0xcd4 <vfprintf+0x570>
     cd2:	01 2f       	mov	r16, r17
     cd4:	34 ff       	sbrs	r19, 4
     cd6:	0c c0       	rjmp	.+24     	; 0xcf0 <vfprintf+0x58c>
     cd8:	fe 01       	movw	r30, r28
     cda:	ee 0d       	add	r30, r14
     cdc:	f1 1d       	adc	r31, r1
     cde:	80 81       	ld	r24, Z
     ce0:	80 33       	cpi	r24, 0x30	; 48
     ce2:	11 f4       	brne	.+4      	; 0xce8 <vfprintf+0x584>
     ce4:	39 7e       	andi	r19, 0xE9	; 233
     ce6:	08 c0       	rjmp	.+16     	; 0xcf8 <vfprintf+0x594>
     ce8:	32 ff       	sbrs	r19, 2
     cea:	05 c0       	rjmp	.+10     	; 0xcf6 <vfprintf+0x592>
     cec:	0e 5f       	subi	r16, 0xFE	; 254
     cee:	04 c0       	rjmp	.+8      	; 0xcf8 <vfprintf+0x594>
     cf0:	83 2f       	mov	r24, r19
     cf2:	86 78       	andi	r24, 0x86	; 134
     cf4:	09 f0       	breq	.+2      	; 0xcf8 <vfprintf+0x594>
     cf6:	0f 5f       	subi	r16, 0xFF	; 255
     cf8:	33 fd       	sbrc	r19, 3
     cfa:	12 c0       	rjmp	.+36     	; 0xd20 <vfprintf+0x5bc>
     cfc:	30 ff       	sbrs	r19, 0
     cfe:	06 c0       	rjmp	.+12     	; 0xd0c <vfprintf+0x5a8>
     d00:	1e 2d       	mov	r17, r14
     d02:	0f 15       	cp	r16, r15
     d04:	18 f4       	brcc	.+6      	; 0xd0c <vfprintf+0x5a8>
     d06:	1f 0d       	add	r17, r15
     d08:	10 1b       	sub	r17, r16
     d0a:	0f 2d       	mov	r16, r15
     d0c:	0f 15       	cp	r16, r15
     d0e:	60 f4       	brcc	.+24     	; 0xd28 <vfprintf+0x5c4>
     d10:	b6 01       	movw	r22, r12
     d12:	80 e2       	ldi	r24, 0x20	; 32
     d14:	90 e0       	ldi	r25, 0x00	; 0
     d16:	3b 8b       	std	Y+19, r19	; 0x13
     d18:	a7 d1       	rcall	.+846    	; 0x1068 <fputc>
     d1a:	0f 5f       	subi	r16, 0xFF	; 255
     d1c:	3b 89       	ldd	r19, Y+19	; 0x13
     d1e:	f6 cf       	rjmp	.-20     	; 0xd0c <vfprintf+0x5a8>
     d20:	0f 15       	cp	r16, r15
     d22:	10 f4       	brcc	.+4      	; 0xd28 <vfprintf+0x5c4>
     d24:	f0 1a       	sub	r15, r16
     d26:	01 c0       	rjmp	.+2      	; 0xd2a <vfprintf+0x5c6>
     d28:	f1 2c       	mov	r15, r1
     d2a:	34 ff       	sbrs	r19, 4
     d2c:	11 c0       	rjmp	.+34     	; 0xd50 <vfprintf+0x5ec>
     d2e:	b6 01       	movw	r22, r12
     d30:	80 e3       	ldi	r24, 0x30	; 48
     d32:	90 e0       	ldi	r25, 0x00	; 0
     d34:	3b 8b       	std	Y+19, r19	; 0x13
     d36:	98 d1       	rcall	.+816    	; 0x1068 <fputc>
     d38:	3b 89       	ldd	r19, Y+19	; 0x13
     d3a:	32 ff       	sbrs	r19, 2
     d3c:	16 c0       	rjmp	.+44     	; 0xd6a <vfprintf+0x606>
     d3e:	31 fd       	sbrc	r19, 1
     d40:	03 c0       	rjmp	.+6      	; 0xd48 <vfprintf+0x5e4>
     d42:	88 e7       	ldi	r24, 0x78	; 120
     d44:	90 e0       	ldi	r25, 0x00	; 0
     d46:	02 c0       	rjmp	.+4      	; 0xd4c <vfprintf+0x5e8>
     d48:	88 e5       	ldi	r24, 0x58	; 88
     d4a:	90 e0       	ldi	r25, 0x00	; 0
     d4c:	b6 01       	movw	r22, r12
     d4e:	0c c0       	rjmp	.+24     	; 0xd68 <vfprintf+0x604>
     d50:	83 2f       	mov	r24, r19
     d52:	86 78       	andi	r24, 0x86	; 134
     d54:	51 f0       	breq	.+20     	; 0xd6a <vfprintf+0x606>
     d56:	31 ff       	sbrs	r19, 1
     d58:	02 c0       	rjmp	.+4      	; 0xd5e <vfprintf+0x5fa>
     d5a:	8b e2       	ldi	r24, 0x2B	; 43
     d5c:	01 c0       	rjmp	.+2      	; 0xd60 <vfprintf+0x5fc>
     d5e:	80 e2       	ldi	r24, 0x20	; 32
     d60:	37 fd       	sbrc	r19, 7
     d62:	8d e2       	ldi	r24, 0x2D	; 45
     d64:	b6 01       	movw	r22, r12
     d66:	90 e0       	ldi	r25, 0x00	; 0
     d68:	7f d1       	rcall	.+766    	; 0x1068 <fputc>
     d6a:	e1 16       	cp	r14, r17
     d6c:	30 f4       	brcc	.+12     	; 0xd7a <vfprintf+0x616>
     d6e:	b6 01       	movw	r22, r12
     d70:	80 e3       	ldi	r24, 0x30	; 48
     d72:	90 e0       	ldi	r25, 0x00	; 0
     d74:	79 d1       	rcall	.+754    	; 0x1068 <fputc>
     d76:	11 50       	subi	r17, 0x01	; 1
     d78:	f8 cf       	rjmp	.-16     	; 0xd6a <vfprintf+0x606>
     d7a:	ea 94       	dec	r14
     d7c:	f3 01       	movw	r30, r6
     d7e:	ee 0d       	add	r30, r14
     d80:	f1 1d       	adc	r31, r1
     d82:	80 81       	ld	r24, Z
     d84:	b6 01       	movw	r22, r12
     d86:	90 e0       	ldi	r25, 0x00	; 0
     d88:	6f d1       	rcall	.+734    	; 0x1068 <fputc>
     d8a:	e1 10       	cpse	r14, r1
     d8c:	f6 cf       	rjmp	.-20     	; 0xd7a <vfprintf+0x616>
     d8e:	14 c0       	rjmp	.+40     	; 0xdb8 <vfprintf+0x654>
     d90:	f4 e0       	ldi	r31, 0x04	; 4
     d92:	ff 15       	cp	r31, r15
     d94:	48 f5       	brcc	.+82     	; 0xde8 <vfprintf+0x684>
     d96:	84 e0       	ldi	r24, 0x04	; 4
     d98:	f8 1a       	sub	r15, r24
     d9a:	33 fe       	sbrs	r3, 3
     d9c:	1d c0       	rjmp	.+58     	; 0xdd8 <vfprintf+0x674>
     d9e:	21 10       	cpse	r2, r1
     da0:	24 c0       	rjmp	.+72     	; 0xdea <vfprintf+0x686>
     da2:	03 ff       	sbrs	r16, 3
     da4:	27 c0       	rjmp	.+78     	; 0xdf4 <vfprintf+0x690>
     da6:	06 e2       	ldi	r16, 0x26	; 38
     da8:	10 e0       	ldi	r17, 0x00	; 0
     daa:	f3 2d       	mov	r31, r3
     dac:	f0 71       	andi	r31, 0x10	; 16
     dae:	3f 2e       	mov	r3, r31
     db0:	f8 01       	movw	r30, r16
     db2:	84 91       	lpm	r24, Z
     db4:	81 11       	cpse	r24, r1
     db6:	21 c0       	rjmp	.+66     	; 0xdfa <vfprintf+0x696>
     db8:	ff 20       	and	r15, r15
     dba:	09 f4       	brne	.+2      	; 0xdbe <vfprintf+0x65a>
     dbc:	fd cc       	rjmp	.-1542   	; 0x7b8 <vfprintf+0x54>
     dbe:	b6 01       	movw	r22, r12
     dc0:	80 e2       	ldi	r24, 0x20	; 32
     dc2:	90 e0       	ldi	r25, 0x00	; 0
     dc4:	51 d1       	rcall	.+674    	; 0x1068 <fputc>
     dc6:	fa 94       	dec	r15
     dc8:	f7 cf       	rjmp	.-18     	; 0xdb8 <vfprintf+0x654>
     dca:	f6 01       	movw	r30, r12
     dcc:	86 81       	ldd	r24, Z+6	; 0x06
     dce:	97 81       	ldd	r25, Z+7	; 0x07
     dd0:	23 c0       	rjmp	.+70     	; 0xe18 <vfprintf+0x6b4>
     dd2:	8f ef       	ldi	r24, 0xFF	; 255
     dd4:	9f ef       	ldi	r25, 0xFF	; 255
     dd6:	20 c0       	rjmp	.+64     	; 0xe18 <vfprintf+0x6b4>
     dd8:	b6 01       	movw	r22, r12
     dda:	80 e2       	ldi	r24, 0x20	; 32
     ddc:	90 e0       	ldi	r25, 0x00	; 0
     dde:	44 d1       	rcall	.+648    	; 0x1068 <fputc>
     de0:	fa 94       	dec	r15
     de2:	f1 10       	cpse	r15, r1
     de4:	f9 cf       	rjmp	.-14     	; 0xdd8 <vfprintf+0x674>
     de6:	db cf       	rjmp	.-74     	; 0xd9e <vfprintf+0x63a>
     de8:	f1 2c       	mov	r15, r1
     dea:	b6 01       	movw	r22, r12
     dec:	82 2d       	mov	r24, r2
     dee:	90 e0       	ldi	r25, 0x00	; 0
     df0:	3b d1       	rcall	.+630    	; 0x1068 <fputc>
     df2:	d7 cf       	rjmp	.-82     	; 0xda2 <vfprintf+0x63e>
     df4:	0a e2       	ldi	r16, 0x2A	; 42
     df6:	10 e0       	ldi	r17, 0x00	; 0
     df8:	d8 cf       	rjmp	.-80     	; 0xdaa <vfprintf+0x646>
     dfa:	31 10       	cpse	r3, r1
     dfc:	80 52       	subi	r24, 0x20	; 32
     dfe:	b6 01       	movw	r22, r12
     e00:	90 e0       	ldi	r25, 0x00	; 0
     e02:	32 d1       	rcall	.+612    	; 0x1068 <fputc>
     e04:	0f 5f       	subi	r16, 0xFF	; 255
     e06:	1f 4f       	sbci	r17, 0xFF	; 255
     e08:	d3 cf       	rjmp	.-90     	; 0xdb0 <vfprintf+0x64c>
     e0a:	23 e0       	ldi	r18, 0x03	; 3
     e0c:	2f 15       	cp	r18, r15
     e0e:	10 f4       	brcc	.+4      	; 0xe14 <vfprintf+0x6b0>
     e10:	83 e0       	ldi	r24, 0x03	; 3
     e12:	c2 cf       	rjmp	.-124    	; 0xd98 <vfprintf+0x634>
     e14:	f1 2c       	mov	r15, r1
     e16:	c5 cf       	rjmp	.-118    	; 0xda2 <vfprintf+0x63e>
     e18:	63 96       	adiw	r28, 0x13	; 19
     e1a:	e2 e1       	ldi	r30, 0x12	; 18
     e1c:	1c c0       	rjmp	.+56     	; 0xe56 <__epilogue_restores__>

00000e1e <__prologue_saves__>:
     e1e:	2f 92       	push	r2
     e20:	3f 92       	push	r3
     e22:	4f 92       	push	r4
     e24:	5f 92       	push	r5
     e26:	6f 92       	push	r6
     e28:	7f 92       	push	r7
     e2a:	8f 92       	push	r8
     e2c:	9f 92       	push	r9
     e2e:	af 92       	push	r10
     e30:	bf 92       	push	r11
     e32:	cf 92       	push	r12
     e34:	df 92       	push	r13
     e36:	ef 92       	push	r14
     e38:	ff 92       	push	r15
     e3a:	0f 93       	push	r16
     e3c:	1f 93       	push	r17
     e3e:	cf 93       	push	r28
     e40:	df 93       	push	r29
     e42:	cd b7       	in	r28, 0x3d	; 61
     e44:	de b7       	in	r29, 0x3e	; 62
     e46:	ca 1b       	sub	r28, r26
     e48:	db 0b       	sbc	r29, r27
     e4a:	0f b6       	in	r0, 0x3f	; 63
     e4c:	f8 94       	cli
     e4e:	de bf       	out	0x3e, r29	; 62
     e50:	0f be       	out	0x3f, r0	; 63
     e52:	cd bf       	out	0x3d, r28	; 61
     e54:	09 94       	ijmp

00000e56 <__epilogue_restores__>:
     e56:	2a 88       	ldd	r2, Y+18	; 0x12
     e58:	39 88       	ldd	r3, Y+17	; 0x11
     e5a:	48 88       	ldd	r4, Y+16	; 0x10
     e5c:	5f 84       	ldd	r5, Y+15	; 0x0f
     e5e:	6e 84       	ldd	r6, Y+14	; 0x0e
     e60:	7d 84       	ldd	r7, Y+13	; 0x0d
     e62:	8c 84       	ldd	r8, Y+12	; 0x0c
     e64:	9b 84       	ldd	r9, Y+11	; 0x0b
     e66:	aa 84       	ldd	r10, Y+10	; 0x0a
     e68:	b9 84       	ldd	r11, Y+9	; 0x09
     e6a:	c8 84       	ldd	r12, Y+8	; 0x08
     e6c:	df 80       	ldd	r13, Y+7	; 0x07
     e6e:	ee 80       	ldd	r14, Y+6	; 0x06
     e70:	fd 80       	ldd	r15, Y+5	; 0x05
     e72:	0c 81       	ldd	r16, Y+4	; 0x04
     e74:	1b 81       	ldd	r17, Y+3	; 0x03
     e76:	aa 81       	ldd	r26, Y+2	; 0x02
     e78:	b9 81       	ldd	r27, Y+1	; 0x01
     e7a:	ce 0f       	add	r28, r30
     e7c:	d1 1d       	adc	r29, r1
     e7e:	0f b6       	in	r0, 0x3f	; 63
     e80:	f8 94       	cli
     e82:	de bf       	out	0x3e, r29	; 62
     e84:	0f be       	out	0x3f, r0	; 63
     e86:	cd bf       	out	0x3d, r28	; 61
     e88:	ed 01       	movw	r28, r26
     e8a:	08 95       	ret

00000e8c <__ftoa_engine>:
     e8c:	28 30       	cpi	r18, 0x08	; 8
     e8e:	08 f0       	brcs	.+2      	; 0xe92 <__ftoa_engine+0x6>
     e90:	27 e0       	ldi	r18, 0x07	; 7
     e92:	33 27       	eor	r19, r19
     e94:	da 01       	movw	r26, r20
     e96:	99 0f       	add	r25, r25
     e98:	31 1d       	adc	r19, r1
     e9a:	87 fd       	sbrc	r24, 7
     e9c:	91 60       	ori	r25, 0x01	; 1
     e9e:	00 96       	adiw	r24, 0x00	; 0
     ea0:	61 05       	cpc	r22, r1
     ea2:	71 05       	cpc	r23, r1
     ea4:	39 f4       	brne	.+14     	; 0xeb4 <__ftoa_engine+0x28>
     ea6:	32 60       	ori	r19, 0x02	; 2
     ea8:	2e 5f       	subi	r18, 0xFE	; 254
     eaa:	3d 93       	st	X+, r19
     eac:	30 e3       	ldi	r19, 0x30	; 48
     eae:	2a 95       	dec	r18
     eb0:	e1 f7       	brne	.-8      	; 0xeaa <__ftoa_engine+0x1e>
     eb2:	08 95       	ret
     eb4:	9f 3f       	cpi	r25, 0xFF	; 255
     eb6:	30 f0       	brcs	.+12     	; 0xec4 <__ftoa_engine+0x38>
     eb8:	80 38       	cpi	r24, 0x80	; 128
     eba:	71 05       	cpc	r23, r1
     ebc:	61 05       	cpc	r22, r1
     ebe:	09 f0       	breq	.+2      	; 0xec2 <__ftoa_engine+0x36>
     ec0:	3c 5f       	subi	r19, 0xFC	; 252
     ec2:	3c 5f       	subi	r19, 0xFC	; 252
     ec4:	3d 93       	st	X+, r19
     ec6:	91 30       	cpi	r25, 0x01	; 1
     ec8:	08 f0       	brcs	.+2      	; 0xecc <__ftoa_engine+0x40>
     eca:	80 68       	ori	r24, 0x80	; 128
     ecc:	91 1d       	adc	r25, r1
     ece:	df 93       	push	r29
     ed0:	cf 93       	push	r28
     ed2:	1f 93       	push	r17
     ed4:	0f 93       	push	r16
     ed6:	ff 92       	push	r15
     ed8:	ef 92       	push	r14
     eda:	19 2f       	mov	r17, r25
     edc:	98 7f       	andi	r25, 0xF8	; 248
     ede:	96 95       	lsr	r25
     ee0:	e9 2f       	mov	r30, r25
     ee2:	96 95       	lsr	r25
     ee4:	96 95       	lsr	r25
     ee6:	e9 0f       	add	r30, r25
     ee8:	ff 27       	eor	r31, r31
     eea:	e8 57       	subi	r30, 0x78	; 120
     eec:	ff 4f       	sbci	r31, 0xFF	; 255
     eee:	99 27       	eor	r25, r25
     ef0:	33 27       	eor	r19, r19
     ef2:	ee 24       	eor	r14, r14
     ef4:	ff 24       	eor	r15, r15
     ef6:	a7 01       	movw	r20, r14
     ef8:	e7 01       	movw	r28, r14
     efa:	05 90       	lpm	r0, Z+
     efc:	08 94       	sec
     efe:	07 94       	ror	r0
     f00:	28 f4       	brcc	.+10     	; 0xf0c <__ftoa_engine+0x80>
     f02:	36 0f       	add	r19, r22
     f04:	e7 1e       	adc	r14, r23
     f06:	f8 1e       	adc	r15, r24
     f08:	49 1f       	adc	r20, r25
     f0a:	51 1d       	adc	r21, r1
     f0c:	66 0f       	add	r22, r22
     f0e:	77 1f       	adc	r23, r23
     f10:	88 1f       	adc	r24, r24
     f12:	99 1f       	adc	r25, r25
     f14:	06 94       	lsr	r0
     f16:	a1 f7       	brne	.-24     	; 0xf00 <__ftoa_engine+0x74>
     f18:	05 90       	lpm	r0, Z+
     f1a:	07 94       	ror	r0
     f1c:	28 f4       	brcc	.+10     	; 0xf28 <__ftoa_engine+0x9c>
     f1e:	e7 0e       	add	r14, r23
     f20:	f8 1e       	adc	r15, r24
     f22:	49 1f       	adc	r20, r25
     f24:	56 1f       	adc	r21, r22
     f26:	c1 1d       	adc	r28, r1
     f28:	77 0f       	add	r23, r23
     f2a:	88 1f       	adc	r24, r24
     f2c:	99 1f       	adc	r25, r25
     f2e:	66 1f       	adc	r22, r22
     f30:	06 94       	lsr	r0
     f32:	a1 f7       	brne	.-24     	; 0xf1c <__ftoa_engine+0x90>
     f34:	05 90       	lpm	r0, Z+
     f36:	07 94       	ror	r0
     f38:	28 f4       	brcc	.+10     	; 0xf44 <__ftoa_engine+0xb8>
     f3a:	f8 0e       	add	r15, r24
     f3c:	49 1f       	adc	r20, r25
     f3e:	56 1f       	adc	r21, r22
     f40:	c7 1f       	adc	r28, r23
     f42:	d1 1d       	adc	r29, r1
     f44:	88 0f       	add	r24, r24
     f46:	99 1f       	adc	r25, r25
     f48:	66 1f       	adc	r22, r22
     f4a:	77 1f       	adc	r23, r23
     f4c:	06 94       	lsr	r0
     f4e:	a1 f7       	brne	.-24     	; 0xf38 <__ftoa_engine+0xac>
     f50:	05 90       	lpm	r0, Z+
     f52:	07 94       	ror	r0
     f54:	20 f4       	brcc	.+8      	; 0xf5e <__ftoa_engine+0xd2>
     f56:	49 0f       	add	r20, r25
     f58:	56 1f       	adc	r21, r22
     f5a:	c7 1f       	adc	r28, r23
     f5c:	d8 1f       	adc	r29, r24
     f5e:	99 0f       	add	r25, r25
     f60:	66 1f       	adc	r22, r22
     f62:	77 1f       	adc	r23, r23
     f64:	88 1f       	adc	r24, r24
     f66:	06 94       	lsr	r0
     f68:	a9 f7       	brne	.-22     	; 0xf54 <__ftoa_engine+0xc8>
     f6a:	84 91       	lpm	r24, Z
     f6c:	10 95       	com	r17
     f6e:	17 70       	andi	r17, 0x07	; 7
     f70:	41 f0       	breq	.+16     	; 0xf82 <__ftoa_engine+0xf6>
     f72:	d6 95       	lsr	r29
     f74:	c7 95       	ror	r28
     f76:	57 95       	ror	r21
     f78:	47 95       	ror	r20
     f7a:	f7 94       	ror	r15
     f7c:	e7 94       	ror	r14
     f7e:	1a 95       	dec	r17
     f80:	c1 f7       	brne	.-16     	; 0xf72 <__ftoa_engine+0xe6>
     f82:	ee e2       	ldi	r30, 0x2E	; 46
     f84:	f0 e0       	ldi	r31, 0x00	; 0
     f86:	68 94       	set
     f88:	15 90       	lpm	r1, Z+
     f8a:	15 91       	lpm	r17, Z+
     f8c:	35 91       	lpm	r19, Z+
     f8e:	65 91       	lpm	r22, Z+
     f90:	95 91       	lpm	r25, Z+
     f92:	05 90       	lpm	r0, Z+
     f94:	7f e2       	ldi	r23, 0x2F	; 47
     f96:	73 95       	inc	r23
     f98:	e1 18       	sub	r14, r1
     f9a:	f1 0a       	sbc	r15, r17
     f9c:	43 0b       	sbc	r20, r19
     f9e:	56 0b       	sbc	r21, r22
     fa0:	c9 0b       	sbc	r28, r25
     fa2:	d0 09       	sbc	r29, r0
     fa4:	c0 f7       	brcc	.-16     	; 0xf96 <__ftoa_engine+0x10a>
     fa6:	e1 0c       	add	r14, r1
     fa8:	f1 1e       	adc	r15, r17
     faa:	43 1f       	adc	r20, r19
     fac:	56 1f       	adc	r21, r22
     fae:	c9 1f       	adc	r28, r25
     fb0:	d0 1d       	adc	r29, r0
     fb2:	7e f4       	brtc	.+30     	; 0xfd2 <__ftoa_engine+0x146>
     fb4:	70 33       	cpi	r23, 0x30	; 48
     fb6:	11 f4       	brne	.+4      	; 0xfbc <__ftoa_engine+0x130>
     fb8:	8a 95       	dec	r24
     fba:	e6 cf       	rjmp	.-52     	; 0xf88 <__ftoa_engine+0xfc>
     fbc:	e8 94       	clt
     fbe:	01 50       	subi	r16, 0x01	; 1
     fc0:	30 f0       	brcs	.+12     	; 0xfce <__ftoa_engine+0x142>
     fc2:	08 0f       	add	r16, r24
     fc4:	0a f4       	brpl	.+2      	; 0xfc8 <__ftoa_engine+0x13c>
     fc6:	00 27       	eor	r16, r16
     fc8:	02 17       	cp	r16, r18
     fca:	08 f4       	brcc	.+2      	; 0xfce <__ftoa_engine+0x142>
     fcc:	20 2f       	mov	r18, r16
     fce:	23 95       	inc	r18
     fd0:	02 2f       	mov	r16, r18
     fd2:	7a 33       	cpi	r23, 0x3A	; 58
     fd4:	28 f0       	brcs	.+10     	; 0xfe0 <__ftoa_engine+0x154>
     fd6:	79 e3       	ldi	r23, 0x39	; 57
     fd8:	7d 93       	st	X+, r23
     fda:	2a 95       	dec	r18
     fdc:	e9 f7       	brne	.-6      	; 0xfd8 <__ftoa_engine+0x14c>
     fde:	10 c0       	rjmp	.+32     	; 0x1000 <__ftoa_engine+0x174>
     fe0:	7d 93       	st	X+, r23
     fe2:	2a 95       	dec	r18
     fe4:	89 f6       	brne	.-94     	; 0xf88 <__ftoa_engine+0xfc>
     fe6:	06 94       	lsr	r0
     fe8:	97 95       	ror	r25
     fea:	67 95       	ror	r22
     fec:	37 95       	ror	r19
     fee:	17 95       	ror	r17
     ff0:	17 94       	ror	r1
     ff2:	e1 18       	sub	r14, r1
     ff4:	f1 0a       	sbc	r15, r17
     ff6:	43 0b       	sbc	r20, r19
     ff8:	56 0b       	sbc	r21, r22
     ffa:	c9 0b       	sbc	r28, r25
     ffc:	d0 09       	sbc	r29, r0
     ffe:	98 f0       	brcs	.+38     	; 0x1026 <__ftoa_engine+0x19a>
    1000:	23 95       	inc	r18
    1002:	7e 91       	ld	r23, -X
    1004:	73 95       	inc	r23
    1006:	7a 33       	cpi	r23, 0x3A	; 58
    1008:	08 f0       	brcs	.+2      	; 0x100c <__ftoa_engine+0x180>
    100a:	70 e3       	ldi	r23, 0x30	; 48
    100c:	7c 93       	st	X, r23
    100e:	20 13       	cpse	r18, r16
    1010:	b8 f7       	brcc	.-18     	; 0x1000 <__ftoa_engine+0x174>
    1012:	7e 91       	ld	r23, -X
    1014:	70 61       	ori	r23, 0x10	; 16
    1016:	7d 93       	st	X+, r23
    1018:	30 f0       	brcs	.+12     	; 0x1026 <__ftoa_engine+0x19a>
    101a:	83 95       	inc	r24
    101c:	71 e3       	ldi	r23, 0x31	; 49
    101e:	7d 93       	st	X+, r23
    1020:	70 e3       	ldi	r23, 0x30	; 48
    1022:	2a 95       	dec	r18
    1024:	e1 f7       	brne	.-8      	; 0x101e <__ftoa_engine+0x192>
    1026:	11 24       	eor	r1, r1
    1028:	ef 90       	pop	r14
    102a:	ff 90       	pop	r15
    102c:	0f 91       	pop	r16
    102e:	1f 91       	pop	r17
    1030:	cf 91       	pop	r28
    1032:	df 91       	pop	r29
    1034:	99 27       	eor	r25, r25
    1036:	87 fd       	sbrc	r24, 7
    1038:	90 95       	com	r25
    103a:	08 95       	ret

0000103c <strnlen_P>:
    103c:	fc 01       	movw	r30, r24
    103e:	05 90       	lpm	r0, Z+
    1040:	61 50       	subi	r22, 0x01	; 1
    1042:	70 40       	sbci	r23, 0x00	; 0
    1044:	01 10       	cpse	r0, r1
    1046:	d8 f7       	brcc	.-10     	; 0x103e <strnlen_P+0x2>
    1048:	80 95       	com	r24
    104a:	90 95       	com	r25
    104c:	8e 0f       	add	r24, r30
    104e:	9f 1f       	adc	r25, r31
    1050:	08 95       	ret

00001052 <strnlen>:
    1052:	fc 01       	movw	r30, r24
    1054:	61 50       	subi	r22, 0x01	; 1
    1056:	70 40       	sbci	r23, 0x00	; 0
    1058:	01 90       	ld	r0, Z+
    105a:	01 10       	cpse	r0, r1
    105c:	d8 f7       	brcc	.-10     	; 0x1054 <strnlen+0x2>
    105e:	80 95       	com	r24
    1060:	90 95       	com	r25
    1062:	8e 0f       	add	r24, r30
    1064:	9f 1f       	adc	r25, r31
    1066:	08 95       	ret

00001068 <fputc>:
    1068:	0f 93       	push	r16
    106a:	1f 93       	push	r17
    106c:	cf 93       	push	r28
    106e:	df 93       	push	r29
    1070:	fb 01       	movw	r30, r22
    1072:	23 81       	ldd	r18, Z+3	; 0x03
    1074:	21 fd       	sbrc	r18, 1
    1076:	03 c0       	rjmp	.+6      	; 0x107e <fputc+0x16>
    1078:	8f ef       	ldi	r24, 0xFF	; 255
    107a:	9f ef       	ldi	r25, 0xFF	; 255
    107c:	28 c0       	rjmp	.+80     	; 0x10ce <fputc+0x66>
    107e:	22 ff       	sbrs	r18, 2
    1080:	16 c0       	rjmp	.+44     	; 0x10ae <fputc+0x46>
    1082:	46 81       	ldd	r20, Z+6	; 0x06
    1084:	57 81       	ldd	r21, Z+7	; 0x07
    1086:	24 81       	ldd	r18, Z+4	; 0x04
    1088:	35 81       	ldd	r19, Z+5	; 0x05
    108a:	42 17       	cp	r20, r18
    108c:	53 07       	cpc	r21, r19
    108e:	44 f4       	brge	.+16     	; 0x10a0 <fputc+0x38>
    1090:	a0 81       	ld	r26, Z
    1092:	b1 81       	ldd	r27, Z+1	; 0x01
    1094:	9d 01       	movw	r18, r26
    1096:	2f 5f       	subi	r18, 0xFF	; 255
    1098:	3f 4f       	sbci	r19, 0xFF	; 255
    109a:	31 83       	std	Z+1, r19	; 0x01
    109c:	20 83       	st	Z, r18
    109e:	8c 93       	st	X, r24
    10a0:	26 81       	ldd	r18, Z+6	; 0x06
    10a2:	37 81       	ldd	r19, Z+7	; 0x07
    10a4:	2f 5f       	subi	r18, 0xFF	; 255
    10a6:	3f 4f       	sbci	r19, 0xFF	; 255
    10a8:	37 83       	std	Z+7, r19	; 0x07
    10aa:	26 83       	std	Z+6, r18	; 0x06
    10ac:	10 c0       	rjmp	.+32     	; 0x10ce <fputc+0x66>
    10ae:	eb 01       	movw	r28, r22
    10b0:	09 2f       	mov	r16, r25
    10b2:	18 2f       	mov	r17, r24
    10b4:	00 84       	ldd	r0, Z+8	; 0x08
    10b6:	f1 85       	ldd	r31, Z+9	; 0x09
    10b8:	e0 2d       	mov	r30, r0
    10ba:	09 95       	icall
    10bc:	89 2b       	or	r24, r25
    10be:	e1 f6       	brne	.-72     	; 0x1078 <fputc+0x10>
    10c0:	8e 81       	ldd	r24, Y+6	; 0x06
    10c2:	9f 81       	ldd	r25, Y+7	; 0x07
    10c4:	01 96       	adiw	r24, 0x01	; 1
    10c6:	9f 83       	std	Y+7, r25	; 0x07
    10c8:	8e 83       	std	Y+6, r24	; 0x06
    10ca:	81 2f       	mov	r24, r17
    10cc:	90 2f       	mov	r25, r16
    10ce:	df 91       	pop	r29
    10d0:	cf 91       	pop	r28
    10d2:	1f 91       	pop	r17
    10d4:	0f 91       	pop	r16
    10d6:	08 95       	ret

000010d8 <sprintf>:
    10d8:	ae e0       	ldi	r26, 0x0E	; 14
    10da:	b0 e0       	ldi	r27, 0x00	; 0
    10dc:	e1 e7       	ldi	r30, 0x71	; 113
    10de:	f8 e0       	ldi	r31, 0x08	; 8
    10e0:	ac ce       	rjmp	.-680    	; 0xe3a <__prologue_saves__+0x1c>
    10e2:	0d 89       	ldd	r16, Y+21	; 0x15
    10e4:	1e 89       	ldd	r17, Y+22	; 0x16
    10e6:	86 e0       	ldi	r24, 0x06	; 6
    10e8:	8c 83       	std	Y+4, r24	; 0x04
    10ea:	1a 83       	std	Y+2, r17	; 0x02
    10ec:	09 83       	std	Y+1, r16	; 0x01
    10ee:	8f ef       	ldi	r24, 0xFF	; 255
    10f0:	9f e7       	ldi	r25, 0x7F	; 127
    10f2:	9e 83       	std	Y+6, r25	; 0x06
    10f4:	8d 83       	std	Y+5, r24	; 0x05
    10f6:	ae 01       	movw	r20, r28
    10f8:	47 5e       	subi	r20, 0xE7	; 231
    10fa:	5f 4f       	sbci	r21, 0xFF	; 255
    10fc:	6f 89       	ldd	r22, Y+23	; 0x17
    10fe:	78 8d       	ldd	r23, Y+24	; 0x18
    1100:	ce 01       	movw	r24, r28
    1102:	01 96       	adiw	r24, 0x01	; 1
    1104:	2f db       	rcall	.-2466   	; 0x764 <vfprintf>
    1106:	2f 81       	ldd	r18, Y+7	; 0x07
    1108:	38 85       	ldd	r19, Y+8	; 0x08
    110a:	f8 01       	movw	r30, r16
    110c:	e2 0f       	add	r30, r18
    110e:	f3 1f       	adc	r31, r19
    1110:	10 82       	st	Z, r1
    1112:	2e 96       	adiw	r28, 0x0e	; 14
    1114:	e4 e0       	ldi	r30, 0x04	; 4
    1116:	ad ce       	rjmp	.-678    	; 0xe72 <__epilogue_restores__+0x1c>

00001118 <__ultoa_invert>:
    1118:	fa 01       	movw	r30, r20
    111a:	aa 27       	eor	r26, r26
    111c:	28 30       	cpi	r18, 0x08	; 8
    111e:	51 f1       	breq	.+84     	; 0x1174 <__ultoa_invert+0x5c>
    1120:	20 31       	cpi	r18, 0x10	; 16
    1122:	81 f1       	breq	.+96     	; 0x1184 <__ultoa_invert+0x6c>
    1124:	e8 94       	clt
    1126:	6f 93       	push	r22
    1128:	6e 7f       	andi	r22, 0xFE	; 254
    112a:	6e 5f       	subi	r22, 0xFE	; 254
    112c:	7f 4f       	sbci	r23, 0xFF	; 255
    112e:	8f 4f       	sbci	r24, 0xFF	; 255
    1130:	9f 4f       	sbci	r25, 0xFF	; 255
    1132:	af 4f       	sbci	r26, 0xFF	; 255
    1134:	b1 e0       	ldi	r27, 0x01	; 1
    1136:	3e d0       	rcall	.+124    	; 0x11b4 <__ultoa_invert+0x9c>
    1138:	b4 e0       	ldi	r27, 0x04	; 4
    113a:	3c d0       	rcall	.+120    	; 0x11b4 <__ultoa_invert+0x9c>
    113c:	67 0f       	add	r22, r23
    113e:	78 1f       	adc	r23, r24
    1140:	89 1f       	adc	r24, r25
    1142:	9a 1f       	adc	r25, r26
    1144:	a1 1d       	adc	r26, r1
    1146:	68 0f       	add	r22, r24
    1148:	79 1f       	adc	r23, r25
    114a:	8a 1f       	adc	r24, r26
    114c:	91 1d       	adc	r25, r1
    114e:	a1 1d       	adc	r26, r1
    1150:	6a 0f       	add	r22, r26
    1152:	71 1d       	adc	r23, r1
    1154:	81 1d       	adc	r24, r1
    1156:	91 1d       	adc	r25, r1
    1158:	a1 1d       	adc	r26, r1
    115a:	20 d0       	rcall	.+64     	; 0x119c <__ultoa_invert+0x84>
    115c:	09 f4       	brne	.+2      	; 0x1160 <__ultoa_invert+0x48>
    115e:	68 94       	set
    1160:	3f 91       	pop	r19
    1162:	2a e0       	ldi	r18, 0x0A	; 10
    1164:	26 9f       	mul	r18, r22
    1166:	11 24       	eor	r1, r1
    1168:	30 19       	sub	r19, r0
    116a:	30 5d       	subi	r19, 0xD0	; 208
    116c:	31 93       	st	Z+, r19
    116e:	de f6       	brtc	.-74     	; 0x1126 <__ultoa_invert+0xe>
    1170:	cf 01       	movw	r24, r30
    1172:	08 95       	ret
    1174:	46 2f       	mov	r20, r22
    1176:	47 70       	andi	r20, 0x07	; 7
    1178:	40 5d       	subi	r20, 0xD0	; 208
    117a:	41 93       	st	Z+, r20
    117c:	b3 e0       	ldi	r27, 0x03	; 3
    117e:	0f d0       	rcall	.+30     	; 0x119e <__ultoa_invert+0x86>
    1180:	c9 f7       	brne	.-14     	; 0x1174 <__ultoa_invert+0x5c>
    1182:	f6 cf       	rjmp	.-20     	; 0x1170 <__ultoa_invert+0x58>
    1184:	46 2f       	mov	r20, r22
    1186:	4f 70       	andi	r20, 0x0F	; 15
    1188:	40 5d       	subi	r20, 0xD0	; 208
    118a:	4a 33       	cpi	r20, 0x3A	; 58
    118c:	18 f0       	brcs	.+6      	; 0x1194 <__ultoa_invert+0x7c>
    118e:	49 5d       	subi	r20, 0xD9	; 217
    1190:	31 fd       	sbrc	r19, 1
    1192:	40 52       	subi	r20, 0x20	; 32
    1194:	41 93       	st	Z+, r20
    1196:	02 d0       	rcall	.+4      	; 0x119c <__ultoa_invert+0x84>
    1198:	a9 f7       	brne	.-22     	; 0x1184 <__ultoa_invert+0x6c>
    119a:	ea cf       	rjmp	.-44     	; 0x1170 <__ultoa_invert+0x58>
    119c:	b4 e0       	ldi	r27, 0x04	; 4
    119e:	a6 95       	lsr	r26
    11a0:	97 95       	ror	r25
    11a2:	87 95       	ror	r24
    11a4:	77 95       	ror	r23
    11a6:	67 95       	ror	r22
    11a8:	ba 95       	dec	r27
    11aa:	c9 f7       	brne	.-14     	; 0x119e <__ultoa_invert+0x86>
    11ac:	00 97       	sbiw	r24, 0x00	; 0
    11ae:	61 05       	cpc	r22, r1
    11b0:	71 05       	cpc	r23, r1
    11b2:	08 95       	ret
    11b4:	9b 01       	movw	r18, r22
    11b6:	ac 01       	movw	r20, r24
    11b8:	0a 2e       	mov	r0, r26
    11ba:	06 94       	lsr	r0
    11bc:	57 95       	ror	r21
    11be:	47 95       	ror	r20
    11c0:	37 95       	ror	r19
    11c2:	27 95       	ror	r18
    11c4:	ba 95       	dec	r27
    11c6:	c9 f7       	brne	.-14     	; 0x11ba <__ultoa_invert+0xa2>
    11c8:	62 0f       	add	r22, r18
    11ca:	73 1f       	adc	r23, r19
    11cc:	84 1f       	adc	r24, r20
    11ce:	95 1f       	adc	r25, r21
    11d0:	a0 1d       	adc	r26, r0
    11d2:	08 95       	ret

000011d4 <_exit>:
    11d4:	f8 94       	cli

000011d6 <__stop_program>:
    11d6:	ff cf       	rjmp	.-2      	; 0x11d6 <__stop_program>
