
Atmega16TestNokia5110LCD.elf:     file format elf32-avr

Sections:
Idx Name          Size      VMA       LMA       File off  Algn
  0 .text         0000048e  00000000  00000000  00000074  2**1
                  CONTENTS, ALLOC, LOAD, READONLY, CODE
  1 .data         00000000  00800060  00800060  00000502  2**0
                  CONTENTS, ALLOC, LOAD, DATA
  2 .bss          000001fd  00800060  00800060  00000502  2**0
                  ALLOC
  3 .comment      00000030  00000000  00000000  00000502  2**0
                  CONTENTS, READONLY
  4 .note.gnu.avr.deviceinfo 0000003c  00000000  00000000  00000534  2**2
                  CONTENTS, READONLY
  5 .debug_aranges 000000e0  00000000  00000000  00000570  2**0
                  CONTENTS, READONLY, DEBUGGING
  6 .debug_info   00001aa2  00000000  00000000  00000650  2**0
                  CONTENTS, READONLY, DEBUGGING
  7 .debug_abbrev 000008ba  00000000  00000000  000020f2  2**0
                  CONTENTS, READONLY, DEBUGGING
  8 .debug_line   00000b41  00000000  00000000  000029ac  2**0
                  CONTENTS, READONLY, DEBUGGING
  9 .debug_frame  0000037c  00000000  00000000  000034f0  2**2
                  CONTENTS, READONLY, DEBUGGING
 10 .debug_str    00000577  00000000  00000000  0000386c  2**0
                  CONTENTS, READONLY, DEBUGGING
 11 .debug_loc    00001ba3  00000000  00000000  00003de3  2**0
                  CONTENTS, READONLY, DEBUGGING
 12 .debug_ranges 000000c0  00000000  00000000  00005986  2**0
                  CONTENTS, READONLY, DEBUGGING

Disassembly of section .text:

00000000 <__vectors>:
   0:	0c 94 2a 00 	jmp	0x54	; 0x54 <__ctors_end>
   4:	0c 94 3c 00 	jmp	0x78	; 0x78 <__bad_interrupt>
   8:	0c 94 3c 00 	jmp	0x78	; 0x78 <__bad_interrupt>
   c:	0c 94 3c 00 	jmp	0x78	; 0x78 <__bad_interrupt>
  10:	0c 94 3c 00 	jmp	0x78	; 0x78 <__bad_interrupt>
  14:	0c 94 3c 00 	jmp	0x78	; 0x78 <__bad_interrupt>
  18:	0c 94 3c 00 	jmp	0x78	; 0x78 <__bad_interrupt>
  1c:	0c 94 3c 00 	jmp	0x78	; 0x78 <__bad_interrupt>
  20:	0c 94 3c 00 	jmp	0x78	; 0x78 <__bad_interrupt>
  24:	0c 94 3c 00 	jmp	0x78	; 0x78 <__bad_interrupt>
  28:	0c 94 3c 00 	jmp	0x78	; 0x78 <__bad_interrupt>
  2c:	0c 94 3c 00 	jmp	0x78	; 0x78 <__bad_interrupt>
  30:	0c 94 3c 00 	jmp	0x78	; 0x78 <__bad_interrupt>
  34:	0c 94 3c 00 	jmp	0x78	; 0x78 <__bad_interrupt>
  38:	0c 94 3c 00 	jmp	0x78	; 0x78 <__bad_interrupt>
  3c:	0c 94 3c 00 	jmp	0x78	; 0x78 <__bad_interrupt>
  40:	0c 94 3c 00 	jmp	0x78	; 0x78 <__bad_interrupt>
  44:	0c 94 3c 00 	jmp	0x78	; 0x78 <__bad_interrupt>
  48:	0c 94 3c 00 	jmp	0x78	; 0x78 <__bad_interrupt>
  4c:	0c 94 3c 00 	jmp	0x78	; 0x78 <__bad_interrupt>
  50:	0c 94 3c 00 	jmp	0x78	; 0x78 <__bad_interrupt>

00000054 <__ctors_end>:
  54:	11 24       	eor	r1, r1
  56:	1f be       	out	0x3f, r1	; 63
  58:	cf e5       	ldi	r28, 0x5F	; 95
  5a:	d4 e0       	ldi	r29, 0x04	; 4
  5c:	de bf       	out	0x3e, r29	; 62
  5e:	cd bf       	out	0x3d, r28	; 61

00000060 <__do_clear_bss>:
  60:	22 e0       	ldi	r18, 0x02	; 2
  62:	a0 e6       	ldi	r26, 0x60	; 96
  64:	b0 e0       	ldi	r27, 0x00	; 0
  66:	01 c0       	rjmp	.+2      	; 0x6a <.do_clear_bss_start>

00000068 <.do_clear_bss_loop>:
  68:	1d 92       	st	X+, r1

0000006a <.do_clear_bss_start>:
  6a:	ad 35       	cpi	r26, 0x5D	; 93
  6c:	b2 07       	cpc	r27, r18
  6e:	e1 f7       	brne	.-8      	; 0x68 <.do_clear_bss_loop>
  70:	0e 94 3e 00 	call	0x7c	; 0x7c <main>
  74:	0c 94 45 02 	jmp	0x48a	; 0x48a <_exit>

00000078 <__bad_interrupt>:
  78:	0c 94 00 00 	jmp	0	; 0x0 <__vectors>

0000007c <main>:


int main(void)
{
Port_ini();
Lcd_init();
  7c:	0e 94 e5 00 	call	0x1ca	; 0x1ca <Lcd_init>
Lcd_clear();
  80:	0e 94 65 00 	call	0xca	; 0xca <Lcd_clear>
	//_delay_ms(100);
	//}
//
	//Lcd_triangle(40, 10, 50, 20,50, 10,PIXEL_ON);

	Lcd_Romb(30,5,40,25,30,45,10,20,PIXEL_ON);
  84:	88 24       	eor	r8, r8
  86:	83 94       	inc	r8
  88:	0f 2e       	mov	r0, r31
  8a:	f4 e1       	ldi	r31, 0x14	; 20
  8c:	af 2e       	mov	r10, r31
  8e:	f0 2d       	mov	r31, r0
  90:	0f 2e       	mov	r0, r31
  92:	fa e0       	ldi	r31, 0x0A	; 10
  94:	cf 2e       	mov	r12, r31
  96:	f0 2d       	mov	r31, r0
  98:	0f 2e       	mov	r0, r31
  9a:	fd e2       	ldi	r31, 0x2D	; 45
  9c:	ef 2e       	mov	r14, r31
  9e:	f0 2d       	mov	r31, r0
  a0:	0e e1       	ldi	r16, 0x1E	; 30
  a2:	29 e1       	ldi	r18, 0x19	; 25
  a4:	48 e2       	ldi	r20, 0x28	; 40
  a6:	65 e0       	ldi	r22, 0x05	; 5
  a8:	8e e1       	ldi	r24, 0x1E	; 30
  aa:	0e 94 e4 01 	call	0x3c8	; 0x3c8 <Lcd_Romb>
	Lcd_update();
  ae:	0e 94 7d 00 	call	0xfa	; 0xfa <Lcd_update>
	

	

    }
  b2:	e8 cf       	rjmp	.-48     	; 0x84 <main+0x8>

000000b4 <LcdSend>:
Lcd_line(x3,y3,x1,y1,mode);


UpdateLcd = TRUE;
return OK;
}
  b4:	c4 98       	cbi	0x18, 4	; 24
  b6:	61 30       	cpi	r22, 0x01	; 1
  b8:	11 f4       	brne	.+4      	; 0xbe <LcdSend+0xa>
  ba:	c1 9a       	sbi	0x18, 1	; 24
  bc:	01 c0       	rjmp	.+2      	; 0xc0 <LcdSend+0xc>
  be:	c1 98       	cbi	0x18, 1	; 24
  c0:	8f b9       	out	0x0f, r24	; 15
  c2:	77 9b       	sbis	0x0e, 7	; 14
  c4:	fe cf       	rjmp	.-4      	; 0xc2 <LcdSend+0xe>
  c6:	c4 9a       	sbi	0x18, 4	; 24
  c8:	08 95       	ret

000000ca <Lcd_clear>:
  ca:	88 ef       	ldi	r24, 0xF8	; 248
  cc:	91 e0       	ldi	r25, 0x01	; 1
  ce:	e5 e6       	ldi	r30, 0x65	; 101
  d0:	f0 e0       	ldi	r31, 0x00	; 0
  d2:	df 01       	movw	r26, r30
  d4:	9c 01       	movw	r18, r24
  d6:	1d 92       	st	X+, r1
  d8:	21 50       	subi	r18, 0x01	; 1
  da:	30 40       	sbci	r19, 0x00	; 0
  dc:	e1 f7       	brne	.-8      	; 0xd6 <Lcd_clear+0xc>
  de:	10 92 64 00 	sts	0x0064, r1	; 0x800064 <LoWaterMark+0x1>
  e2:	10 92 63 00 	sts	0x0063, r1	; 0x800063 <LoWaterMark>
  e6:	87 ef       	ldi	r24, 0xF7	; 247
  e8:	91 e0       	ldi	r25, 0x01	; 1
  ea:	90 93 62 00 	sts	0x0062, r25	; 0x800062 <HiWaterMark+0x1>
  ee:	80 93 61 00 	sts	0x0061, r24	; 0x800061 <HiWaterMark>
  f2:	81 e0       	ldi	r24, 0x01	; 1
  f4:	80 93 60 00 	sts	0x0060, r24	; 0x800060 <_edata>
  f8:	08 95       	ret

000000fa <Lcd_update>:
  fa:	0f 93       	push	r16
  fc:	1f 93       	push	r17
  fe:	cf 93       	push	r28
 100:	df 93       	push	r29
 102:	80 91 63 00 	lds	r24, 0x0063	; 0x800063 <LoWaterMark>
 106:	90 91 64 00 	lds	r25, 0x0064	; 0x800064 <LoWaterMark+0x1>
 10a:	99 23       	and	r25, r25
 10c:	2c f4       	brge	.+10     	; 0x118 <Lcd_update+0x1e>
 10e:	10 92 64 00 	sts	0x0064, r1	; 0x800064 <LoWaterMark+0x1>
 112:	10 92 63 00 	sts	0x0063, r1	; 0x800063 <LoWaterMark>
 116:	09 c0       	rjmp	.+18     	; 0x12a <Lcd_update+0x30>
 118:	88 3f       	cpi	r24, 0xF8	; 248
 11a:	91 40       	sbci	r25, 0x01	; 1
 11c:	34 f0       	brlt	.+12     	; 0x12a <Lcd_update+0x30>
 11e:	87 ef       	ldi	r24, 0xF7	; 247
 120:	91 e0       	ldi	r25, 0x01	; 1
 122:	90 93 64 00 	sts	0x0064, r25	; 0x800064 <LoWaterMark+0x1>
 126:	80 93 63 00 	sts	0x0063, r24	; 0x800063 <LoWaterMark>
 12a:	80 91 61 00 	lds	r24, 0x0061	; 0x800061 <HiWaterMark>
 12e:	90 91 62 00 	lds	r25, 0x0062	; 0x800062 <HiWaterMark+0x1>
 132:	99 23       	and	r25, r25
 134:	2c f4       	brge	.+10     	; 0x140 <Lcd_update+0x46>
 136:	10 92 62 00 	sts	0x0062, r1	; 0x800062 <HiWaterMark+0x1>
 13a:	10 92 61 00 	sts	0x0061, r1	; 0x800061 <HiWaterMark>
 13e:	09 c0       	rjmp	.+18     	; 0x152 <Lcd_update+0x58>
 140:	88 3f       	cpi	r24, 0xF8	; 248
 142:	91 40       	sbci	r25, 0x01	; 1
 144:	34 f0       	brlt	.+12     	; 0x152 <Lcd_update+0x58>
 146:	87 ef       	ldi	r24, 0xF7	; 247
 148:	91 e0       	ldi	r25, 0x01	; 1
 14a:	90 93 62 00 	sts	0x0062, r25	; 0x800062 <HiWaterMark+0x1>
 14e:	80 93 61 00 	sts	0x0061, r24	; 0x800061 <HiWaterMark>
 152:	c0 91 63 00 	lds	r28, 0x0063	; 0x800063 <LoWaterMark>
 156:	d0 91 64 00 	lds	r29, 0x0064	; 0x800064 <LoWaterMark+0x1>
 15a:	ce 01       	movw	r24, r28
 15c:	64 e5       	ldi	r22, 0x54	; 84
 15e:	70 e0       	ldi	r23, 0x00	; 0
 160:	0e 94 1d 02 	call	0x43a	; 0x43a <__divmodhi4>
 164:	16 2f       	mov	r17, r22
 166:	60 e0       	ldi	r22, 0x00	; 0
 168:	80 68       	ori	r24, 0x80	; 128
 16a:	0e 94 5a 00 	call	0xb4	; 0xb4 <LcdSend>
 16e:	60 e0       	ldi	r22, 0x00	; 0
 170:	81 2f       	mov	r24, r17
 172:	80 64       	ori	r24, 0x40	; 64
 174:	0e 94 5a 00 	call	0xb4	; 0xb4 <LcdSend>
 178:	80 91 61 00 	lds	r24, 0x0061	; 0x800061 <HiWaterMark>
 17c:	90 91 62 00 	lds	r25, 0x0062	; 0x800062 <HiWaterMark+0x1>
 180:	8c 17       	cp	r24, r28
 182:	9d 07       	cpc	r25, r29
 184:	8c f0       	brlt	.+34     	; 0x1a8 <Lcd_update+0xae>
 186:	8e 01       	movw	r16, r28
 188:	0b 59       	subi	r16, 0x9B	; 155
 18a:	1f 4f       	sbci	r17, 0xFF	; 255
 18c:	61 e0       	ldi	r22, 0x01	; 1
 18e:	f8 01       	movw	r30, r16
 190:	81 91       	ld	r24, Z+
 192:	8f 01       	movw	r16, r30
 194:	0e 94 5a 00 	call	0xb4	; 0xb4 <LcdSend>
 198:	21 96       	adiw	r28, 0x01	; 1
 19a:	80 91 61 00 	lds	r24, 0x0061	; 0x800061 <HiWaterMark>
 19e:	90 91 62 00 	lds	r25, 0x0062	; 0x800062 <HiWaterMark+0x1>
 1a2:	8c 17       	cp	r24, r28
 1a4:	9d 07       	cpc	r25, r29
 1a6:	94 f7       	brge	.-28     	; 0x18c <Lcd_update+0x92>
 1a8:	87 ef       	ldi	r24, 0xF7	; 247
 1aa:	91 e0       	ldi	r25, 0x01	; 1
 1ac:	90 93 64 00 	sts	0x0064, r25	; 0x800064 <LoWaterMark+0x1>
 1b0:	80 93 63 00 	sts	0x0063, r24	; 0x800063 <LoWaterMark>
 1b4:	10 92 62 00 	sts	0x0062, r1	; 0x800062 <HiWaterMark+0x1>
 1b8:	10 92 61 00 	sts	0x0061, r1	; 0x800061 <HiWaterMark>
 1bc:	10 92 60 00 	sts	0x0060, r1	; 0x800060 <_edata>
 1c0:	df 91       	pop	r29
 1c2:	cf 91       	pop	r28
 1c4:	1f 91       	pop	r17
 1c6:	0f 91       	pop	r16
 1c8:	08 95       	ret

000001ca <Lcd_init>:
 1ca:	c6 9a       	sbi	0x18, 6	; 24
 1cc:	87 b3       	in	r24, 0x17	; 23
 1ce:	82 6f       	ori	r24, 0xF2	; 242
 1d0:	87 bb       	out	0x17, r24	; 23
 1d2:	c6 98       	cbi	0x18, 6	; 24
 1d4:	c6 9a       	sbi	0x18, 6	; 24
 1d6:	80 e5       	ldi	r24, 0x50	; 80
 1d8:	8d b9       	out	0x0d, r24	; 13
 1da:	c4 9a       	sbi	0x18, 4	; 24
 1dc:	60 e0       	ldi	r22, 0x00	; 0
 1de:	81 e2       	ldi	r24, 0x21	; 33
 1e0:	0e 94 5a 00 	call	0xb4	; 0xb4 <LcdSend>
 1e4:	60 e0       	ldi	r22, 0x00	; 0
 1e6:	88 ec       	ldi	r24, 0xC8	; 200
 1e8:	0e 94 5a 00 	call	0xb4	; 0xb4 <LcdSend>
 1ec:	60 e0       	ldi	r22, 0x00	; 0
 1ee:	86 e0       	ldi	r24, 0x06	; 6
 1f0:	0e 94 5a 00 	call	0xb4	; 0xb4 <LcdSend>
 1f4:	60 e0       	ldi	r22, 0x00	; 0
 1f6:	83 e1       	ldi	r24, 0x13	; 19
 1f8:	0e 94 5a 00 	call	0xb4	; 0xb4 <LcdSend>
 1fc:	60 e0       	ldi	r22, 0x00	; 0
 1fe:	80 e2       	ldi	r24, 0x20	; 32
 200:	0e 94 5a 00 	call	0xb4	; 0xb4 <LcdSend>
 204:	60 e0       	ldi	r22, 0x00	; 0
 206:	8c e0       	ldi	r24, 0x0C	; 12
 208:	0e 94 5a 00 	call	0xb4	; 0xb4 <LcdSend>
 20c:	0e 94 65 00 	call	0xca	; 0xca <Lcd_clear>
 210:	0e 94 7d 00 	call	0xfa	; 0xfa <Lcd_update>
 214:	08 95       	ret

00000216 <Lcd_pixel>:
 216:	84 35       	cpi	r24, 0x54	; 84
 218:	08 f0       	brcs	.+2      	; 0x21c <Lcd_pixel+0x6>
 21a:	52 c0       	rjmp	.+164    	; 0x2c0 <Lcd_pixel+0xaa>
 21c:	60 33       	cpi	r22, 0x30	; 48
 21e:	08 f0       	brcs	.+2      	; 0x222 <Lcd_pixel+0xc>
 220:	51 c0       	rjmp	.+162    	; 0x2c4 <Lcd_pixel+0xae>
 222:	26 2f       	mov	r18, r22
 224:	26 95       	lsr	r18
 226:	26 95       	lsr	r18
 228:	26 95       	lsr	r18
 22a:	90 e0       	ldi	r25, 0x00	; 0
 22c:	34 e5       	ldi	r19, 0x54	; 84
 22e:	23 9f       	mul	r18, r19
 230:	80 0d       	add	r24, r0
 232:	91 1d       	adc	r25, r1
 234:	11 24       	eor	r1, r1
 236:	22 0f       	add	r18, r18
 238:	22 0f       	add	r18, r18
 23a:	22 0f       	add	r18, r18
 23c:	62 1b       	sub	r22, r18
 23e:	fc 01       	movw	r30, r24
 240:	eb 59       	subi	r30, 0x9B	; 155
 242:	ff 4f       	sbci	r31, 0xFF	; 255
 244:	20 81       	ld	r18, Z
 246:	41 11       	cpse	r20, r1
 248:	0a c0       	rjmp	.+20     	; 0x25e <Lcd_pixel+0x48>
 24a:	41 e0       	ldi	r20, 0x01	; 1
 24c:	50 e0       	ldi	r21, 0x00	; 0
 24e:	02 c0       	rjmp	.+4      	; 0x254 <Lcd_pixel+0x3e>
 250:	44 0f       	add	r20, r20
 252:	55 1f       	adc	r21, r21
 254:	6a 95       	dec	r22
 256:	e2 f7       	brpl	.-8      	; 0x250 <Lcd_pixel+0x3a>
 258:	40 95       	com	r20
 25a:	24 23       	and	r18, r20
 25c:	15 c0       	rjmp	.+42     	; 0x288 <Lcd_pixel+0x72>
 25e:	41 30       	cpi	r20, 0x01	; 1
 260:	49 f4       	brne	.+18     	; 0x274 <Lcd_pixel+0x5e>
 262:	41 e0       	ldi	r20, 0x01	; 1
 264:	50 e0       	ldi	r21, 0x00	; 0
 266:	02 c0       	rjmp	.+4      	; 0x26c <Lcd_pixel+0x56>
 268:	44 0f       	add	r20, r20
 26a:	55 1f       	adc	r21, r21
 26c:	6a 95       	dec	r22
 26e:	e2 f7       	brpl	.-8      	; 0x268 <Lcd_pixel+0x52>
 270:	24 2b       	or	r18, r20
 272:	0a c0       	rjmp	.+20     	; 0x288 <Lcd_pixel+0x72>
 274:	42 30       	cpi	r20, 0x02	; 2
 276:	41 f4       	brne	.+16     	; 0x288 <Lcd_pixel+0x72>
 278:	41 e0       	ldi	r20, 0x01	; 1
 27a:	50 e0       	ldi	r21, 0x00	; 0
 27c:	02 c0       	rjmp	.+4      	; 0x282 <Lcd_pixel+0x6c>
 27e:	44 0f       	add	r20, r20
 280:	55 1f       	adc	r21, r21
 282:	6a 95       	dec	r22
 284:	e2 f7       	brpl	.-8      	; 0x27e <Lcd_pixel+0x68>
 286:	24 27       	eor	r18, r20
 288:	fc 01       	movw	r30, r24
 28a:	eb 59       	subi	r30, 0x9B	; 155
 28c:	ff 4f       	sbci	r31, 0xFF	; 255
 28e:	20 83       	st	Z, r18
 290:	20 91 63 00 	lds	r18, 0x0063	; 0x800063 <LoWaterMark>
 294:	30 91 64 00 	lds	r19, 0x0064	; 0x800064 <LoWaterMark+0x1>
 298:	82 17       	cp	r24, r18
 29a:	93 07       	cpc	r25, r19
 29c:	24 f4       	brge	.+8      	; 0x2a6 <Lcd_pixel+0x90>
 29e:	90 93 64 00 	sts	0x0064, r25	; 0x800064 <LoWaterMark+0x1>
 2a2:	80 93 63 00 	sts	0x0063, r24	; 0x800063 <LoWaterMark>
 2a6:	20 91 61 00 	lds	r18, 0x0061	; 0x800061 <HiWaterMark>
 2aa:	30 91 62 00 	lds	r19, 0x0062	; 0x800062 <HiWaterMark+0x1>
 2ae:	28 17       	cp	r18, r24
 2b0:	39 07       	cpc	r19, r25
 2b2:	54 f4       	brge	.+20     	; 0x2c8 <Lcd_pixel+0xb2>
 2b4:	90 93 62 00 	sts	0x0062, r25	; 0x800062 <HiWaterMark+0x1>
 2b8:	80 93 61 00 	sts	0x0061, r24	; 0x800061 <HiWaterMark>
 2bc:	80 e0       	ldi	r24, 0x00	; 0
 2be:	08 95       	ret
 2c0:	81 e0       	ldi	r24, 0x01	; 1
 2c2:	08 95       	ret
 2c4:	81 e0       	ldi	r24, 0x01	; 1
 2c6:	08 95       	ret
 2c8:	80 e0       	ldi	r24, 0x00	; 0
 2ca:	08 95       	ret

000002cc <Lcd_line>:
 2cc:	7f 92       	push	r7
 2ce:	8f 92       	push	r8
 2d0:	9f 92       	push	r9
 2d2:	af 92       	push	r10
 2d4:	bf 92       	push	r11
 2d6:	cf 92       	push	r12
 2d8:	df 92       	push	r13
 2da:	ef 92       	push	r14
 2dc:	ff 92       	push	r15
 2de:	0f 93       	push	r16
 2e0:	1f 93       	push	r17
 2e2:	cf 93       	push	r28
 2e4:	df 93       	push	r29
 2e6:	d8 2f       	mov	r29, r24
 2e8:	c6 2f       	mov	r28, r22
 2ea:	74 2e       	mov	r7, r20
 2ec:	82 2e       	mov	r8, r18
 2ee:	a2 2e       	mov	r10, r18
 2f0:	b1 2c       	mov	r11, r1
 2f2:	a6 1a       	sub	r10, r22
 2f4:	b1 08       	sbc	r11, r1
 2f6:	c4 2e       	mov	r12, r20
 2f8:	d1 2c       	mov	r13, r1
 2fa:	c8 1a       	sub	r12, r24
 2fc:	d1 08       	sbc	r13, r1
 2fe:	bb 20       	and	r11, r11
 300:	34 f4       	brge	.+12     	; 0x30e <Lcd_line+0x42>
 302:	b1 94       	neg	r11
 304:	a1 94       	neg	r10
 306:	b1 08       	sbc	r11, r1
 308:	99 24       	eor	r9, r9
 30a:	9a 94       	dec	r9
 30c:	02 c0       	rjmp	.+4      	; 0x312 <Lcd_line+0x46>
 30e:	99 24       	eor	r9, r9
 310:	93 94       	inc	r9
 312:	dd 20       	and	r13, r13
 314:	2c f4       	brge	.+10     	; 0x320 <Lcd_line+0x54>
 316:	d1 94       	neg	r13
 318:	c1 94       	neg	r12
 31a:	d1 08       	sbc	r13, r1
 31c:	1f ef       	ldi	r17, 0xFF	; 255
 31e:	01 c0       	rjmp	.+2      	; 0x322 <Lcd_line+0x56>
 320:	11 e0       	ldi	r17, 0x01	; 1
 322:	40 2f       	mov	r20, r16
 324:	6c 2f       	mov	r22, r28
 326:	8d 2f       	mov	r24, r29
 328:	0e 94 0b 01 	call	0x216	; 0x216 <Lcd_pixel>
 32c:	81 11       	cpse	r24, r1
 32e:	3e c0       	rjmp	.+124    	; 0x3ac <Lcd_line+0xe0>
 330:	cc 0c       	add	r12, r12
 332:	dd 1c       	adc	r13, r13
 334:	aa 0c       	add	r10, r10
 336:	bb 1c       	adc	r11, r11
 338:	ac 14       	cp	r10, r12
 33a:	bd 04       	cpc	r11, r13
 33c:	d4 f4       	brge	.+52     	; 0x372 <Lcd_line+0xa6>
 33e:	c6 01       	movw	r24, r12
 340:	95 95       	asr	r25
 342:	87 95       	ror	r24
 344:	75 01       	movw	r14, r10
 346:	e8 1a       	sub	r14, r24
 348:	f9 0a       	sbc	r15, r25
 34a:	7d 16       	cp	r7, r29
 34c:	59 f1       	breq	.+86     	; 0x3a4 <Lcd_line+0xd8>
 34e:	ff 20       	and	r15, r15
 350:	1c f0       	brlt	.+6      	; 0x358 <Lcd_line+0x8c>
 352:	c9 0d       	add	r28, r9
 354:	ec 18       	sub	r14, r12
 356:	fd 08       	sbc	r15, r13
 358:	d1 0f       	add	r29, r17
 35a:	ea 0c       	add	r14, r10
 35c:	fb 1c       	adc	r15, r11
 35e:	40 2f       	mov	r20, r16
 360:	6c 2f       	mov	r22, r28
 362:	8d 2f       	mov	r24, r29
 364:	0e 94 0b 01 	call	0x216	; 0x216 <Lcd_pixel>
 368:	81 11       	cpse	r24, r1
 36a:	20 c0       	rjmp	.+64     	; 0x3ac <Lcd_line+0xe0>
 36c:	d7 11       	cpse	r29, r7
 36e:	ef cf       	rjmp	.-34     	; 0x34e <Lcd_line+0x82>
 370:	19 c0       	rjmp	.+50     	; 0x3a4 <Lcd_line+0xd8>
 372:	c5 01       	movw	r24, r10
 374:	95 95       	asr	r25
 376:	87 95       	ror	r24
 378:	76 01       	movw	r14, r12
 37a:	e8 1a       	sub	r14, r24
 37c:	f9 0a       	sbc	r15, r25
 37e:	8c 16       	cp	r8, r28
 380:	89 f0       	breq	.+34     	; 0x3a4 <Lcd_line+0xd8>
 382:	ff 20       	and	r15, r15
 384:	1c f0       	brlt	.+6      	; 0x38c <Lcd_line+0xc0>
 386:	d1 0f       	add	r29, r17
 388:	ea 18       	sub	r14, r10
 38a:	fb 08       	sbc	r15, r11
 38c:	c9 0d       	add	r28, r9
 38e:	ec 0c       	add	r14, r12
 390:	fd 1c       	adc	r15, r13
 392:	40 2f       	mov	r20, r16
 394:	6c 2f       	mov	r22, r28
 396:	8d 2f       	mov	r24, r29
 398:	0e 94 0b 01 	call	0x216	; 0x216 <Lcd_pixel>
 39c:	81 11       	cpse	r24, r1
 39e:	06 c0       	rjmp	.+12     	; 0x3ac <Lcd_line+0xe0>
 3a0:	c8 11       	cpse	r28, r8
 3a2:	ef cf       	rjmp	.-34     	; 0x382 <Lcd_line+0xb6>
 3a4:	81 e0       	ldi	r24, 0x01	; 1
 3a6:	80 93 60 00 	sts	0x0060, r24	; 0x800060 <_edata>
 3aa:	80 e0       	ldi	r24, 0x00	; 0
 3ac:	df 91       	pop	r29
 3ae:	cf 91       	pop	r28
 3b0:	1f 91       	pop	r17
 3b2:	0f 91       	pop	r16
 3b4:	ff 90       	pop	r15
 3b6:	ef 90       	pop	r14
 3b8:	df 90       	pop	r13
 3ba:	cf 90       	pop	r12
 3bc:	bf 90       	pop	r11
 3be:	af 90       	pop	r10
 3c0:	9f 90       	pop	r9
 3c2:	8f 90       	pop	r8
 3c4:	7f 90       	pop	r7
 3c6:	08 95       	ret

000003c8 <Lcd_Romb>:
 *                          y3    -> абсолютна€ координата y третьего угла треугольника
 *                          mode  -> Off, On или Xor. —мотри enum в n5110.h
 * ¬озвращаемое значение :  смотри возвращаемое значение в n5110lcd.h
 */
 byte Lcd_Romb(byte x1, byte y1, byte x2, byte y2,byte x3, byte y3, byte x4, byte y4,LcdPixelMode mode)
 {
 3c8:	8f 92       	push	r8
 3ca:	9f 92       	push	r9
 3cc:	af 92       	push	r10
 3ce:	bf 92       	push	r11
 3d0:	cf 92       	push	r12
 3d2:	df 92       	push	r13
 3d4:	ef 92       	push	r14
 3d6:	ff 92       	push	r15
 3d8:	0f 93       	push	r16
 3da:	1f 93       	push	r17
 3dc:	cf 93       	push	r28
 3de:	df 93       	push	r29
 3e0:	cd b7       	in	r28, 0x3d	; 61
 3e2:	de b7       	in	r29, 0x3e	; 62
 3e4:	18 2f       	mov	r17, r24
 3e6:	f6 2e       	mov	r15, r22
 3e8:	b4 2e       	mov	r11, r20
 3ea:	92 2e       	mov	r9, r18
 3ec:	d0 2e       	mov	r13, r16

 Lcd_line(x1,y1,x2,y2,mode);
 3ee:	08 2d       	mov	r16, r8
 3f0:	0e 94 66 01 	call	0x2cc	; 0x2cc <Lcd_line>
 Lcd_line(x2,y2,x3,y3,mode);
 3f4:	2e 2d       	mov	r18, r14
 3f6:	4d 2d       	mov	r20, r13
 3f8:	69 2d       	mov	r22, r9
 3fa:	8b 2d       	mov	r24, r11
 3fc:	0e 94 66 01 	call	0x2cc	; 0x2cc <Lcd_line>
 Lcd_line(x3,y3,x4,y4,mode);
 400:	2a 2d       	mov	r18, r10
 402:	4c 2d       	mov	r20, r12
 404:	6e 2d       	mov	r22, r14
 406:	8d 2d       	mov	r24, r13
 408:	0e 94 66 01 	call	0x2cc	; 0x2cc <Lcd_line>
 Lcd_line(x4,y4,x1,y1,mode);
 40c:	2f 2d       	mov	r18, r15
 40e:	41 2f       	mov	r20, r17
 410:	6a 2d       	mov	r22, r10
 412:	8c 2d       	mov	r24, r12
 414:	0e 94 66 01 	call	0x2cc	; 0x2cc <Lcd_line>

 UpdateLcd = TRUE;
 418:	81 e0       	ldi	r24, 0x01	; 1
 41a:	80 93 60 00 	sts	0x0060, r24	; 0x800060 <_edata>
 return OK;

 }
 41e:	80 e0       	ldi	r24, 0x00	; 0
 420:	df 91       	pop	r29
 422:	cf 91       	pop	r28
 424:	1f 91       	pop	r17
 426:	0f 91       	pop	r16
 428:	ff 90       	pop	r15
 42a:	ef 90       	pop	r14
 42c:	df 90       	pop	r13
 42e:	cf 90       	pop	r12
 430:	bf 90       	pop	r11
 432:	af 90       	pop	r10
 434:	9f 90       	pop	r9
 436:	8f 90       	pop	r8
 438:	08 95       	ret

0000043a <__divmodhi4>:
 43a:	97 fb       	bst	r25, 7
 43c:	07 2e       	mov	r0, r23
 43e:	16 f4       	brtc	.+4      	; 0x444 <__divmodhi4+0xa>
 440:	00 94       	com	r0
 442:	07 d0       	rcall	.+14     	; 0x452 <__divmodhi4_neg1>
 444:	77 fd       	sbrc	r23, 7
 446:	09 d0       	rcall	.+18     	; 0x45a <__divmodhi4_neg2>
 448:	0e 94 31 02 	call	0x462	; 0x462 <__udivmodhi4>
 44c:	07 fc       	sbrc	r0, 7
 44e:	05 d0       	rcall	.+10     	; 0x45a <__divmodhi4_neg2>
 450:	3e f4       	brtc	.+14     	; 0x460 <__divmodhi4_exit>

00000452 <__divmodhi4_neg1>:
 452:	90 95       	com	r25
 454:	81 95       	neg	r24
 456:	9f 4f       	sbci	r25, 0xFF	; 255
 458:	08 95       	ret

0000045a <__divmodhi4_neg2>:
 45a:	70 95       	com	r23
 45c:	61 95       	neg	r22
 45e:	7f 4f       	sbci	r23, 0xFF	; 255

00000460 <__divmodhi4_exit>:
 460:	08 95       	ret

00000462 <__udivmodhi4>:
 462:	aa 1b       	sub	r26, r26
 464:	bb 1b       	sub	r27, r27
 466:	51 e1       	ldi	r21, 0x11	; 17
 468:	07 c0       	rjmp	.+14     	; 0x478 <__udivmodhi4_ep>

0000046a <__udivmodhi4_loop>:
 46a:	aa 1f       	adc	r26, r26
 46c:	bb 1f       	adc	r27, r27
 46e:	a6 17       	cp	r26, r22
 470:	b7 07       	cpc	r27, r23
 472:	10 f0       	brcs	.+4      	; 0x478 <__udivmodhi4_ep>
 474:	a6 1b       	sub	r26, r22
 476:	b7 0b       	sbc	r27, r23

00000478 <__udivmodhi4_ep>:
 478:	88 1f       	adc	r24, r24
 47a:	99 1f       	adc	r25, r25
 47c:	5a 95       	dec	r21
 47e:	a9 f7       	brne	.-22     	; 0x46a <__udivmodhi4_loop>
 480:	80 95       	com	r24
 482:	90 95       	com	r25
 484:	bc 01       	movw	r22, r24
 486:	cd 01       	movw	r24, r26
 488:	08 95       	ret

0000048a <_exit>:
 48a:	f8 94       	cli

0000048c <__stop_program>:
 48c:	ff cf       	rjmp	.-2      	; 0x48c <__stop_program>
