
main.elf:     file format elf32-avr

Sections:
Idx Name          Size      VMA       LMA       File off  Algn
  0 .text         000010be  00000000  00000000  00000074  2**1
                  CONTENTS, ALLOC, LOAD, READONLY, CODE
  1 .data         0000000e  00800060  000010be  00001132  2**0
                  CONTENTS, ALLOC, LOAD, DATA
  2 .comment      00000030  00000000  00000000  00001140  2**0
                  CONTENTS, READONLY
  3 .note.gnu.avr.deviceinfo 0000003c  00000000  00000000  00001170  2**2
                  CONTENTS, READONLY
  4 .debug_aranges 00000098  00000000  00000000  000011ac  2**0
                  CONTENTS, READONLY, DEBUGGING
  5 .debug_info   00001221  00000000  00000000  00001244  2**0
                  CONTENTS, READONLY, DEBUGGING
  6 .debug_abbrev 00000792  00000000  00000000  00002465  2**0
                  CONTENTS, READONLY, DEBUGGING
  7 .debug_line   00000844  00000000  00000000  00002bf7  2**0
                  CONTENTS, READONLY, DEBUGGING
  8 .debug_frame  00000290  00000000  00000000  0000343c  2**2
                  CONTENTS, READONLY, DEBUGGING
  9 .debug_str    0000055b  00000000  00000000  000036cc  2**0
                  CONTENTS, READONLY, DEBUGGING
 10 .debug_loc    000011b0  00000000  00000000  00003c27  2**0
                  CONTENTS, READONLY, DEBUGGING
 11 .debug_ranges 000000e0  00000000  00000000  00004dd7  2**0
                  CONTENTS, READONLY, DEBUGGING

Disassembly of section .text:

00000000 <__vectors>:
       0:	0c 94 52 06 	jmp	0xca4	; 0xca4 <__ctors_end>
       4:	0c 94 6f 06 	jmp	0xcde	; 0xcde <__bad_interrupt>
       8:	0c 94 6f 06 	jmp	0xcde	; 0xcde <__bad_interrupt>
       c:	0c 94 6f 06 	jmp	0xcde	; 0xcde <__bad_interrupt>
      10:	0c 94 6f 06 	jmp	0xcde	; 0xcde <__bad_interrupt>
      14:	0c 94 6f 06 	jmp	0xcde	; 0xcde <__bad_interrupt>
      18:	0c 94 6f 06 	jmp	0xcde	; 0xcde <__bad_interrupt>
      1c:	0c 94 6f 06 	jmp	0xcde	; 0xcde <__bad_interrupt>
      20:	0c 94 6f 06 	jmp	0xcde	; 0xcde <__bad_interrupt>
      24:	0c 94 6f 06 	jmp	0xcde	; 0xcde <__bad_interrupt>
      28:	0c 94 6f 06 	jmp	0xcde	; 0xcde <__bad_interrupt>
      2c:	0c 94 6f 06 	jmp	0xcde	; 0xcde <__bad_interrupt>
      30:	0c 94 6f 06 	jmp	0xcde	; 0xcde <__bad_interrupt>
      34:	0c 94 6f 06 	jmp	0xcde	; 0xcde <__bad_interrupt>
      38:	0c 94 6f 06 	jmp	0xcde	; 0xcde <__bad_interrupt>
      3c:	0c 94 6f 06 	jmp	0xcde	; 0xcde <__bad_interrupt>
      40:	0c 94 6f 06 	jmp	0xcde	; 0xcde <__bad_interrupt>
      44:	0c 94 6f 06 	jmp	0xcde	; 0xcde <__bad_interrupt>
      48:	0c 94 6f 06 	jmp	0xcde	; 0xcde <__bad_interrupt>
      4c:	0c 94 6f 06 	jmp	0xcde	; 0xcde <__bad_interrupt>
      50:	0c 94 6f 06 	jmp	0xcde	; 0xcde <__bad_interrupt>
      54:	9f 06       	cpc	r9, r31
      56:	a3 06       	cpc	r10, r19
      58:	a6 06       	cpc	r10, r22
      5a:	aa 06       	cpc	r10, r26
      5c:	ad 06       	cpc	r10, r29
      5e:	b1 06       	cpc	r11, r17
      60:	b4 06       	cpc	r11, r20
      62:	b8 06       	cpc	r11, r24

00000064 <NewBFontLAT>:
	...
      74:	00 f8 00 00 00 00 00 00 04 00 00 00 00 38 08 00     .............8..
      84:	38 08 00 00 00 00 00 00 00 00 00 40 e0 58 e0 58     8..........@.X.X
      94:	00 00 0d 03 0d 03 01 00 00 60 90 98 90 00 00 00     .........`......
      a4:	03 02 0e 01 00 00 00 90 a8 90 40 40 00 00 00 00     ..........@@....
      b4:	02 05 02 00 00 00 c0 20 20 00 00 00 03 04 05 02     .......  .......
      c4:	05 00 00 00 00 78 00 00 00 00 00 00 00 00 00 00     .....x..........
      d4:	00 00 00 e0 18 00 00 00 00 00 07 18 00 00 00 00     ................
      e4:	18 e0 00 00 00 00 00 18 07 00 00 00 00 10 d0 38     ...............8
      f4:	d0 10 00 00 00 00 00 00 00 00 80 80 80 f0 80 80     ................
     104:	80 00 00 00 07 00 00 00 00 00 00 00 00 00 00 00     ................
     114:	00 18 0e 02 00 00 00 80 80 80 80 80 00 00 00 00     ................
	...
     130:	00 06 06 00 00 00 00 00 00 80 60 18 00 00 08 06     ..........`.....
     140:	01 00 00 00 00 f0 08 08 08 f0 00 00 03 04 04 04     ................
     150:	03 00 00 00 08 f8 00 00 00 00 04 04 07 04 04 00     ................
     160:	00 10 08 88 48 30 00 00 06 05 04 04 06 00 00 10     ....H0..........
     170:	08 48 48 b0 00 00 02 04 04 04 03 00 00 80 40 30     .HH...........@0
     180:	08 f8 00 00 01 01 01 05 07 05 00 00 78 48 48 88     ............xHH.
     190:	00 00 02 04 04 04 03 00 00 e0 50 48 48 88 00 00     ..........PHH...
     1a0:	03 04 04 04 03 00 00 18 08 08 c8 38 00 00 00 00     ...........8....
     1b0:	06 01 00 00 00 b0 48 48 48 b0 00 00 03 04 04 04     ......HHH.......
     1c0:	03 00 00 70 88 88 88 f0 00 00 04 04 04 02 01 00     ...p............
     1d0:	00 00 60 60 00 00 00 00 00 06 06 00 00 00 00 00     ..``............
     1e0:	00 60 60 00 00 00 00 0c 06 02 00 00 80 40 40 20     .``..........@@ 
     1f0:	10 10 00 00 01 01 02 04 04 00 00 40 40 40 40 40     ...........@@@@@
     200:	00 00 01 01 01 01 01 00 10 10 20 40 40 80 00 04     .......... @@...
     210:	04 02 01 01 00 00 00 00 20 10 90 60 00 00 00 04     ........ ..`....
     220:	05 00 00 00 00 f8 04 c4 24 f8 00 00 07 08 08 09     ........$.......
     230:	05 00 00 00 e8 18 e0 00 00 04 07 05 01 05 07 04     ................
     240:	08 f8 48 48 48 b0 00 04 07 04 04 04 03 00 00 f0     ..HHH...........
     250:	08 08 08 18 00 00 03 04 04 04 02 00 08 f8 08 08     ................
     260:	10 e0 00 04 07 04 04 02 01 00 08 f8 48 e8 08 18     ............H...
     270:	00 04 07 04 04 04 06 00 00 08 f8 48 e8 08 18 00     ...........H....
     280:	04 07 04 00 00 00 00 f0 08 08 88 98 80 00 03 04     ................
     290:	04 04 03 00 08 f8 48 40 48 f8 08 04 07 04 00 04     ......H@H.......
     2a0:	07 04 00 08 08 f8 08 08 00 00 04 04 07 04 04 00     ................
     2b0:	00 80 08 08 f8 08 00 00 03 04 04 03 00 00 08 f8     ................
     2c0:	88 c0 28 18 08 04 07 04 00 01 06 04 00 08 f8 08     ..(.............
     2d0:	00 00 00 00 04 07 04 04 07 00 08 f8 38 c0 38 f8     ............8.8.
     2e0:	08 04 07 04 00 04 07 04 08 f8 38 c0 08 f8 08 04     ..........8.....
     2f0:	07 04 01 06 07 00 00 f0 08 08 08 f0 00 00 03 04     ................
     300:	04 04 03 00 00 08 f8 88 88 70 00 00 04 07 04 00     .........p......
     310:	00 00 00 f0 08 08 08 f0 00 00 03 04 0c 0c 0b 00     ................
     320:	08 f8 88 88 88 70 00 04 07 04 00 01 02 04 00 30     .....p.........0
     330:	48 48 50 98 00 00 06 02 04 04 03 00 18 08 08 f8     HHP.............
     340:	08 08 18 00 00 04 07 04 00 00 08 f8 08 00 08 f8     ................
     350:	08 00 03 04 04 04 03 00 08 38 c8 00 c8 38 08 00     .........8...8..
     360:	00 01 06 01 00 00 08 f8 08 c0 08 f8 08 00 03 04     ................
     370:	03 04 03 00 08 18 20 c0 20 18 08 04 06 01 00 01     ...... . .......
     380:	06 04 08 18 68 80 68 18 08 00 00 04 07 04 00 00     ....h.h.........
     390:	00 18 08 c8 28 18 00 00 06 05 04 04 06 00 00 00     ....(...........
     3a0:	f8 08 08 00 00 00 00 1f 10 10 00 00 00 08 70 80     ..............p.
     3b0:	00 00 00 00 00 00 01 0e 00 00 00 00 08 08 f8 00     ................
     3c0:	00 00 00 10 10 1f 00 00 00 40 20 18 20 40 00 00     .........@ . @..
	...
     3dc:	00 20 20 20 20 20 20 20 00 00 00 08 10 00 00 00     .       ........
     3ec:	00 00 00 00 00 00 00 40 a0 a0 a0 c0 00 00 03 04     .......@........
     3fc:	04 04 07 04 08 f8 40 20 20 c0 00 04 07 04 04 04     ......@  .......
     40c:	03 00 00 c0 20 20 20 60 00 00 03 04 04 04 02 00     ....   `........
     41c:	00 c0 20 20 48 f8 00 00 03 04 04 04 07 04 00 c0     ..  H...........
     42c:	a0 a0 a0 c0 00 00 03 04 04 04 04 00 00 20 f0 28     ............. .(
     43c:	28 28 00 00 04 07 04 04 04 00 00 c0 20 20 40 e0     ((..........  @.
     44c:	20 00 03 14 14 14 0f 00 08 f8 40 20 20 c0 00 04      .........@  ...
     45c:	07 04 00 04 07 04 00 20 20 e8 00 00 00 00 04 04     .......  .......
     46c:	07 04 04 00 00 20 20 28 e0 00 00 00 10 10 10 0f     .....  (........
     47c:	00 00 08 f8 80 a0 60 20 00 04 07 00 05 06 04 00     ......` ........
     48c:	00 00 08 f8 00 00 00 00 04 04 07 04 04 00 20 e0     .............. .
     49c:	20 c0 20 c0 00 04 07 04 07 04 07 04 20 e0 40 20      . ......... .@ 
     4ac:	20 c0 00 04 07 04 00 04 07 04 00 c0 20 20 20 c0      ...........   .
     4bc:	00 00 03 04 04 04 03 00 20 e0 40 20 20 c0 00 10     ........ .@  ...
     4cc:	1f 14 04 04 03 00 00 c0 20 20 40 e0 20 00 03 04     ........  @. ...
     4dc:	04 14 1f 10 00 20 e0 40 20 20 00 00 04 07 04 04     ..... .@  ......
     4ec:	04 00 00 40 a0 a0 a0 60 00 00 06 04 04 04 03 00     ...@...`........
     4fc:	00 20 f0 20 20 20 00 00 00 03 04 04 04 02 20 e0     . .   ........ .
     50c:	00 00 20 e0 00 00 03 04 04 02 07 04 20 e0 20 00     .. ......... . .
     51c:	20 e0 20 00 00 03 04 03 00 00 20 e0 20 80 20 e0      . ....... . . .
     52c:	20 00 03 04 03 04 03 00 20 60 80 80 60 20 00 04      ....... `..` ..
     53c:	06 01 01 06 04 00 20 60 a0 00 20 e0 20 00 10 11     ...... `.. . ...
     54c:	1e 13 00 00 00 60 20 a0 60 20 00 00 06 05 04 04     .....` .` ......
     55c:	06 00 00 00 00 f0 08 00 00 00 00 01 0e 10 00 00     ................
     56c:	00 00 00 f8 00 00 00 00 00 00 0f 00 00 00 00 00     ................
     57c:	08 f0 00 00 00 00 00 10 0e 01 00 00 00 00 80 00     ................
     58c:	00 80 00 00 01 00 01 01 00 00 f8 08 08 08 08 f8     ................
     59c:	00 07 04 04 04 04 07 00 18 08 f8 88 58 40 80 00     ............X@..
     5ac:	04 07 04 00 04 03 00 08 f8 0a 09 08 38 00 04 07     ............8...
     5bc:	04 00 00 00 00 00 00 00 00 00 00 00 18 0e 02 00     ................
     5cc:	00 00 00 20 e0 28 24 e0 00 00 04 07 04 00 01 00     ... .($.........
	...
     5e4:	08 04 0a 04 02 00 00 00 00 00 00 00 00 00 04 00     ................
     5f4:	04 00 04 00 00 20 20 f8 20 20 00 00 00 00 07 00     .....  .  ......
     604:	00 00 00 20 20 f8 20 20 00 00 01 01 07 01 01 00     ...  .  ........
     614:	a0 f0 a8 a8 a8 a8 18 00 01 02 04 04 04 02 10 68     ...............h
     624:	50 20 20 00 00 00 02 05 02 02 05 02 00 08 f8 08     P  .............
     634:	f8 48 80 06 04 03 04 07 04 03 00 80 40 20 00 00     .H..........@ ..
     644:	00 00 01 02 04 00 00 00 f8 88 80 f8 88 80 00 07     ................
     654:	04 00 07 04 04 03 08 f8 48 a2 11 08 18 04 07 04     ........H.......
     664:	00 01 06 04 18 08 f8 88 58 c0 00 00 04 07 04 00     ........X.......
     674:	07 04 08 f8 08 00 08 f8 08 04 07 04 1c 04 07 04     ................
     684:	10 f8 50 50 40 80 00 04 07 14 10 10 0f 00 00 00     ..PP@...........
     694:	00 08 38 60 00 00 00 00 00 00 00 00 00 60 38 08     ..8`.........`8.
	...
     6ac:	00 00 00 08 10 28 10 20 00 00 00 00 00 00 00 00     .....(. ........
     6bc:	00 20 10 28 10 08 00 00 00 00 00 00 00 00 00 00     . .(............
     6cc:	e0 e0 e0 00 00 00 00 00 00 00 00 00 00 80 80 80     ................
     6dc:	80 80 00 00 00 00 00 00 00 00 80 80 80 80 80 80     ................
     6ec:	80 00 00 00 00 00 00 00 f8 08 08 08 08 f8 00 07     ................
     6fc:	04 04 04 04 07 00 78 48 78 58 20 58 78 00 00 00     ......xHxX Xx...
     70c:	00 00 00 00 20 e0 20 e0 a0 80 00 04 07 00 07 04     .... . .........
     71c:	07 00 00 00 00 20 40 80 00 00 00 00 04 02 01 00     ..... @.........
     72c:	20 e0 80 e0 a0 80 00 04 07 00 07 04 07 00 20 e0      ............. .
     73c:	a0 c8 24 60 00 04 07 04 00 01 06 04 10 f8 50 50     ..$`..........PP
     74c:	40 80 00 04 07 04 00 04 07 04 20 e0 20 00 20 e0     @......... . . .
     75c:	20 04 07 04 1c 04 07 04 00 00 00 00 00 00 00 00      ...............
     76c:	00 00 00 00 00 00 08 38 49 82 4a 39 08 00 04 06     .......8I.J9....
     77c:	01 00 00 00 20 60 a4 08 28 e4 20 00 18 11 0e 03     .... `..(. .....
     78c:	00 00 00 80 08 08 f8 08 00 00 03 04 04 03 00 00     ................
     79c:	00 10 e0 20 20 e0 10 00 02 01 01 01 01 02 00 08     ...  ...........
     7ac:	f8 08 08 0e 00 00 04 07 04 00 00 00 00 00 00 78     ...............x
     7bc:	00 00 00 00 00 00 1e 00 00 00 00 60 b8 28 48 88     ...........`.(H.
     7cc:	18 00 0c 08 09 0a 0e 03 08 f8 4a e8 0a 18 00 04     ..........J.....
     7dc:	07 04 04 04 06 00 c0 20 d0 50 50 20 c0 01 02 05     ....... .PP ....
     7ec:	05 05 02 01 00 f0 48 48 48 18 00 00 03 04 04 04     ......HHH.......
     7fc:	02 00 00 00 80 40 00 80 40 00 01 02 04 01 02 04     .....@..@.......
     80c:	00 00 00 00 00 00 00 01 01 01 01 01 01 07 00 80     ................
     81c:	80 80 80 80 00 00 00 00 00 00 00 00 c0 20 f0 b0     ............. ..
     82c:	70 20 c0 01 03 05 05 05 02 01 00 08 0a f8 0a 08     p ..............
     83c:	00 00 04 04 07 04 04 00 00 00 1c 14 1c 00 00 00     ................
     84c:	00 00 00 00 00 00 80 80 80 f0 80 80 80 04 04 04     ................
     85c:	07 04 04 04 00 08 08 f8 08 08 00 00 04 04 07 04     ................
     86c:	04 00 00 20 20 e8 00 00 00 00 04 04 07 04 04 00     ...  ...........
     87c:	00 20 e0 20 20 38 00 00 04 07 04 00 00 00 20 e0     . .  8........ .
     88c:	00 00 20 e0 00 00 1f 04 04 02 07 04 70 88 88 f8     .. .........p...
     89c:	08 f8 08 00 08 08 0f 00 0f 08 00 00 c0 c0 00 00     ................
	...
     8b4:	00 c0 a8 a0 a8 c0 00 00 03 04 04 04 04 00 08 f8     ................
     8c4:	70 88 f8 08 70 04 07 04 03 07 00 01 00 c0 a0 a0     p...p...........
     8d4:	20 60 00 00 03 04 04 04 02 00 40 80 00 40 80 00      `........@..@..
     8e4:	00 04 02 01 04 02 01 00 00 20 20 28 e0 00 00 00     .........  (....
     8f4:	10 10 10 0f 00 00 00 30 48 48 50 98 00 00 06 02     .......0HHP.....
     904:	04 04 03 00 00 40 a0 a0 a0 60 00 00 06 04 04 04     .....@...`......
     914:	03 00 00 20 28 e0 08 00 00 00 04 04 07 04 04 00     ... (...........
     924:	00 00 e8 18 e0 00 00 04 07 05 01 05 07 04 08 f8     ................
     934:	48 48 48 98 00 04 07 04 04 04 03 00 08 f8 48 48     HHH...........HH
     944:	48 b0 00 04 07 04 04 04 03 00 00 08 f8 08 08 08     H...............
     954:	38 00 04 07 04 00 00 00 08 f8 08 08 f8 08 00 1c     8...............
     964:	07 04 04 07 1c 00 08 f8 48 e8 08 18 00 04 07 04     ........H.......
     974:	04 04 06 00 08 18 a0 f8 a0 18 08 04 07 00 07 00     ................
     984:	07 04 00 38 10 48 48 b0 00 00 04 04 04 04 03 00     ...8.HH.........
     994:	08 f8 08 c0 30 f8 08 04 07 03 00 04 07 04 08 f8     ....0...........
     9a4:	09 c2 32 f9 08 04 07 03 00 04 07 04 08 f8 48 a0     ..2...........H.
     9b4:	10 08 18 04 07 04 00 01 06 04 00 08 f8 08 08 f8     ................
     9c4:	08 04 04 03 00 04 07 04 08 f8 38 c0 38 f8 08 04     ..........8.8...
     9d4:	07 04 00 04 07 04 08 f8 48 40 48 f8 08 04 07 04     ........H@H.....
     9e4:	00 04 07 04 00 f0 08 08 08 f0 00 00 03 04 04 04     ................
     9f4:	03 00 08 f8 08 08 08 f8 08 04 07 04 00 04 07 04     ................
     a04:	00 08 f8 88 88 70 00 00 04 07 04 00 00 00 00 f0     .....p..........
     a14:	08 08 08 18 00 00 03 04 04 04 02 00 18 08 08 f8     ................
     a24:	08 08 18 00 00 04 07 04 00 00 08 38 48 80 48 38     ...........8H.H8
     a34:	08 00 04 06 01 00 00 00 c0 20 28 f8 28 20 c0 00     ......... (.( ..
     a44:	01 05 07 05 01 00 08 18 20 c0 20 18 08 04 06 01     ........ . .....
     a54:	00 01 06 04 08 f8 08 00 08 f8 08 04 07 04 04 04     ................
     a64:	07 1c 08 f8 08 00 88 f8 08 00 00 01 01 04 07 04     ................
     a74:	08 f8 00 f8 00 f8 08 04 07 04 07 04 07 04 08 f8     ................
     a84:	00 f8 00 f8 08 04 07 04 07 04 07 1c 78 08 f8 48     ............x..H
     a94:	40 40 80 00 04 07 04 04 04 03 08 f8 48 80 08 f8     @@..........H...
     aa4:	08 04 07 04 03 04 07 04 08 f8 48 40 40 80 00 04     ..........H@@...
     ab4:	07 04 04 04 03 00 00 18 48 48 48 f0 00 00 02 04     ........HHH.....
     ac4:	04 04 03 00 08 f8 48 f0 08 08 f0 04 07 04 03 04     ......H.........
     ad4:	04 03 00 70 88 88 88 f8 08 04 03 00 00 04 07 04     ...p............
     ae4:	00 40 a0 a0 a0 c0 00 00 03 04 04 04 07 04 00 f0     .@..............
     af4:	48 28 2c c0 00 00 03 04 04 04 03 00 00 20 e0 a0     H(,.......... ..
     b04:	a0 40 00 00 04 07 04 04 07 00 00 20 e0 20 20 e0     .@......... .  .
     b14:	00 00 04 07 04 00 01 00 00 20 e0 20 20 e0 20 0c     ......... .  . .
     b24:	04 07 04 04 07 0c 00 c0 a0 a0 a0 c0 00 00 03 04     ................
     b34:	04 04 04 00 60 20 40 e0 40 20 60 04 06 01 07 01     ....` @.@ `.....
     b44:	06 04 00 20 a0 a0 a0 40 00 00 04 04 04 04 03 00     ... ...@........
     b54:	20 e0 20 80 40 e0 20 04 07 02 01 04 07 04 20 e0      . .@. ....... .
     b64:	24 88 48 e4 20 04 07 02 01 04 07 04 20 e0 a0 c0     $.H. ....... ...
     b74:	20 60 00 04 07 04 00 01 06 04 00 20 e0 20 20 e0      `......... .  .
     b84:	20 06 04 03 00 04 07 04 20 e0 60 80 60 e0 20 04      ....... .`.`. .
     b94:	07 04 01 04 07 04 20 e0 a0 80 a0 e0 20 04 07 04     ...... ..... ...
     ba4:	00 04 07 04 00 c0 20 20 20 c0 00 00 03 04 04 04     ......   .......
     bb4:	03 00 20 e0 20 20 20 e0 20 04 07 04 00 04 07 04     .. .   . .......
     bc4:	20 e0 40 20 20 c0 00 10 1f 14 04 04 03 00 00 c0      .@  ...........
     bd4:	20 20 20 60 00 00 03 04 04 04 02 00 00 e0 20 e0        `.......... .
     be4:	20 e0 00 00 00 04 07 04 00 00 20 60 a0 00 20 e0      ......... `.. .
     bf4:	20 00 18 11 0e 03 00 00 c0 20 28 f8 20 20 c0 03      ........ (.  ..
     c04:	04 14 1f 14 04 03 20 60 80 80 60 20 00 04 06 01     ...... `..` ....
     c14:	01 06 04 00 20 e0 20 00 20 e0 20 04 07 04 04 04     .... . . . .....
     c24:	07 0c 20 e0 20 00 a0 e0 20 00 01 01 01 04 07 04     .. . ... .......
     c34:	20 e0 00 e0 00 e0 20 04 07 04 07 04 07 04 20 e0      ..... ....... .
     c44:	00 e0 00 e0 20 04 07 04 07 04 07 0c e0 20 e0 a0     .... ........ ..
     c54:	80 80 00 00 04 07 04 04 03 00 20 e0 a0 80 20 e0     .......... ... .
     c64:	20 04 07 04 07 04 07 04 20 e0 a0 80 80 00 00 04      ....... .......
     c74:	07 04 04 04 03 00 00 60 20 a0 a0 c0 00 00 02 04     .......` .......
     c84:	04 04 03 00 20 e0 a0 c0 20 20 c0 04 07 04 03 04     .... ...  ......
     c94:	04 03 00 c0 20 20 e0 20 00 04 06 01 05 07 04 00     ....  . ........

00000ca4 <__ctors_end>:
     ca4:	11 24       	eor	r1, r1
     ca6:	1f be       	out	0x3f, r1	; 63
     ca8:	cf e5       	ldi	r28, 0x5F	; 95
     caa:	d4 e0       	ldi	r29, 0x04	; 4
     cac:	de bf       	out	0x3e, r29	; 62
     cae:	cd bf       	out	0x3d, r28	; 61

00000cb0 <__do_copy_data>:
     cb0:	10 e0       	ldi	r17, 0x00	; 0
     cb2:	a0 e6       	ldi	r26, 0x60	; 96
     cb4:	b0 e0       	ldi	r27, 0x00	; 0
     cb6:	ee eb       	ldi	r30, 0xBE	; 190
     cb8:	f0 e1       	ldi	r31, 0x10	; 16
     cba:	02 c0       	rjmp	.+4      	; 0xcc0 <__do_copy_data+0x10>
     cbc:	05 90       	lpm	r0, Z+
     cbe:	0d 92       	st	X+, r0
     cc0:	ae 36       	cpi	r26, 0x6E	; 110
     cc2:	b1 07       	cpc	r27, r17
     cc4:	d9 f7       	brne	.-10     	; 0xcbc <__do_copy_data+0xc>

00000cc6 <__do_clear_bss>:
     cc6:	20 e0       	ldi	r18, 0x00	; 0
     cc8:	ae e6       	ldi	r26, 0x6E	; 110
     cca:	b0 e0       	ldi	r27, 0x00	; 0
     ccc:	01 c0       	rjmp	.+2      	; 0xcd0 <.do_clear_bss_start>

00000cce <.do_clear_bss_loop>:
     cce:	1d 92       	st	X+, r1

00000cd0 <.do_clear_bss_start>:
     cd0:	ae 36       	cpi	r26, 0x6E	; 110
     cd2:	b2 07       	cpc	r27, r18
     cd4:	e1 f7       	brne	.-8      	; 0xcce <.do_clear_bss_loop>
     cd6:	0e 94 44 08 	call	0x1088	; 0x1088 <main>
     cda:	0c 94 5d 08 	jmp	0x10ba	; 0x10ba <_exit>

00000cde <__bad_interrupt>:
     cde:	0c 94 00 00 	jmp	0	; 0x0 <__vectors>

00000ce2 <SPI_init>:
	{
		y = 0;
	}
	x = x*8;
	lcd_st7735_putstr(x, y, str, charColor, bkgColor);
}
     ce2:	fc 01       	movw	r30, r24
     ce4:	89 2b       	or	r24, r25
     ce6:	09 f4       	brne	.+2      	; 0xcea <SPI_init+0x8>
     ce8:	46 c0       	rjmp	.+140    	; 0xd76 <SPI_init+0x94>
     cea:	81 81       	ldd	r24, Z+1	; 0x01
     cec:	80 31       	cpi	r24, 0x10	; 16
     cee:	79 f4       	brne	.+30     	; 0xd0e <SPI_init+0x2c>
     cf0:	87 b3       	in	r24, 0x17	; 23
     cf2:	80 6b       	ori	r24, 0xB0	; 176
     cf4:	87 bb       	out	0x17, r24	; 23
     cf6:	c4 9a       	sbi	0x18, 4	; 24
     cf8:	91 81       	ldd	r25, Z+1	; 0x01
     cfa:	80 81       	ld	r24, Z
     cfc:	89 2b       	or	r24, r25
     cfe:	92 81       	ldd	r25, Z+2	; 0x02
     d00:	89 2b       	or	r24, r25
     d02:	94 81       	ldd	r25, Z+4	; 0x04
     d04:	89 2b       	or	r24, r25
     d06:	95 81       	ldd	r25, Z+5	; 0x05
     d08:	89 2b       	or	r24, r25
     d0a:	8d b9       	out	0x0d, r24	; 13
     d0c:	0d c0       	rjmp	.+26     	; 0xd28 <SPI_init+0x46>
     d0e:	be 9a       	sbi	0x17, 6	; 23
     d10:	90 81       	ld	r25, Z
     d12:	81 81       	ldd	r24, Z+1	; 0x01
     d14:	89 2b       	or	r24, r25
     d16:	80 68       	ori	r24, 0x80	; 128
     d18:	92 81       	ldd	r25, Z+2	; 0x02
     d1a:	89 2b       	or	r24, r25
     d1c:	94 81       	ldd	r25, Z+4	; 0x04
     d1e:	89 2b       	or	r24, r25
     d20:	95 81       	ldd	r25, Z+5	; 0x05
     d22:	89 2b       	or	r24, r25
     d24:	8d b9       	out	0x0d, r24	; 13
     d26:	78 94       	sei
     d28:	e3 81       	ldd	r30, Z+3	; 0x03
     d2a:	8e 2f       	mov	r24, r30
     d2c:	90 e0       	ldi	r25, 0x00	; 0
     d2e:	88 30       	cpi	r24, 0x08	; 8
     d30:	91 05       	cpc	r25, r1
     d32:	08 f5       	brcc	.+66     	; 0xd76 <SPI_init+0x94>
     d34:	fc 01       	movw	r30, r24
     d36:	e6 5d       	subi	r30, 0xD6	; 214
     d38:	ff 4f       	sbci	r31, 0xFF	; 255
     d3a:	0c 94 57 08 	jmp	0x10ae	; 0x10ae <__tablejump2__>
     d3e:	70 9a       	sbi	0x0e, 0	; 14
     d40:	8d b1       	in	r24, 0x0d	; 13
     d42:	8d b9       	out	0x0d, r24	; 13
     d44:	08 95       	ret
     d46:	8d b1       	in	r24, 0x0d	; 13
     d48:	8d b9       	out	0x0d, r24	; 13
     d4a:	08 95       	ret
     d4c:	70 9a       	sbi	0x0e, 0	; 14
     d4e:	68 9a       	sbi	0x0d, 0	; 13
     d50:	69 98       	cbi	0x0d, 1	; 13
     d52:	08 95       	ret
     d54:	68 9a       	sbi	0x0d, 0	; 13
     d56:	69 98       	cbi	0x0d, 1	; 13
     d58:	08 95       	ret
     d5a:	70 9a       	sbi	0x0e, 0	; 14
     d5c:	68 98       	cbi	0x0d, 0	; 13
     d5e:	69 9a       	sbi	0x0d, 1	; 13
     d60:	08 95       	ret
     d62:	68 98       	cbi	0x0d, 0	; 13
     d64:	69 9a       	sbi	0x0d, 1	; 13
     d66:	08 95       	ret
     d68:	8d b1       	in	r24, 0x0d	; 13
     d6a:	83 60       	ori	r24, 0x03	; 3
     d6c:	8d b9       	out	0x0d, r24	; 13
     d6e:	08 95       	ret
     d70:	8d b1       	in	r24, 0x0d	; 13
     d72:	8c 7f       	andi	r24, 0xFC	; 252
     d74:	8d b9       	out	0x0d, r24	; 13
     d76:	08 95       	ret

00000d78 <SPI_M_byte_io>:
     d78:	c4 98       	cbi	0x18, 4	; 24
     d7a:	8f b9       	out	0x0f, r24	; 15
     d7c:	77 9b       	sbis	0x0e, 7	; 14
     d7e:	fe cf       	rjmp	.-4      	; 0xd7c <SPI_M_byte_io+0x4>
     d80:	8f b1       	in	r24, 0x0f	; 15
     d82:	c4 9a       	sbi	0x18, 4	; 24
     d84:	08 95       	ret

00000d86 <lcd_st7735_send_cmd>:
     d86:	93 98       	cbi	0x12, 3	; 18
     d88:	0e 94 bc 06 	call	0xd78	; 0xd78 <SPI_M_byte_io>
     d8c:	08 95       	ret

00000d8e <lcd_st7735_send_data>:
     d8e:	93 9a       	sbi	0x12, 3	; 18
     d90:	0e 94 bc 06 	call	0xd78	; 0xd78 <SPI_M_byte_io>
     d94:	08 95       	ret

00000d96 <lcd_st7735_init>:
     d96:	cf 93       	push	r28
     d98:	df 93       	push	r29
     d9a:	00 d0       	rcall	.+0      	; 0xd9c <lcd_st7735_init+0x6>
     d9c:	00 d0       	rcall	.+0      	; 0xd9e <lcd_st7735_init+0x8>
     d9e:	00 d0       	rcall	.+0      	; 0xda0 <lcd_st7735_init+0xa>
     da0:	cd b7       	in	r28, 0x3d	; 61
     da2:	de b7       	in	r29, 0x3e	; 62
     da4:	80 e4       	ldi	r24, 0x40	; 64
     da6:	89 83       	std	Y+1, r24	; 0x01
     da8:	80 e1       	ldi	r24, 0x10	; 16
     daa:	8a 83       	std	Y+2, r24	; 0x02
     dac:	1c 82       	std	Y+4, r1	; 0x04
     dae:	1d 82       	std	Y+5, r1	; 0x05
     db0:	1e 82       	std	Y+6, r1	; 0x06
     db2:	1b 82       	std	Y+3, r1	; 0x03
     db4:	ce 01       	movw	r24, r28
     db6:	01 96       	adiw	r24, 0x01	; 1
     db8:	0e 94 71 06 	call	0xce2	; 0xce2 <SPI_init>
     dbc:	8a 9a       	sbi	0x11, 2	; 17
     dbe:	8b 9a       	sbi	0x11, 3	; 17
     dc0:	8f 9a       	sbi	0x11, 7	; 17
     dc2:	92 98       	cbi	0x12, 2	; 18
     dc4:	97 98       	cbi	0x12, 7	; 18
     dc6:	8f ec       	ldi	r24, 0xCF	; 207
     dc8:	97 e0       	ldi	r25, 0x07	; 7
     dca:	01 97       	sbiw	r24, 0x01	; 1
     dcc:	f1 f7       	brne	.-4      	; 0xdca <lcd_st7735_init+0x34>
     dce:	00 c0       	rjmp	.+0      	; 0xdd0 <lcd_st7735_init+0x3a>
     dd0:	00 00       	nop
     dd2:	97 9a       	sbi	0x12, 7	; 18
     dd4:	8f ec       	ldi	r24, 0xCF	; 207
     dd6:	97 e0       	ldi	r25, 0x07	; 7
     dd8:	01 97       	sbiw	r24, 0x01	; 1
     dda:	f1 f7       	brne	.-4      	; 0xdd8 <lcd_st7735_init+0x42>
     ddc:	00 c0       	rjmp	.+0      	; 0xdde <lcd_st7735_init+0x48>
     dde:	00 00       	nop
     de0:	81 e1       	ldi	r24, 0x11	; 17
     de2:	0e 94 c3 06 	call	0xd86	; 0xd86 <lcd_st7735_send_cmd>
     de6:	8f ec       	ldi	r24, 0xCF	; 207
     de8:	97 e0       	ldi	r25, 0x07	; 7
     dea:	01 97       	sbiw	r24, 0x01	; 1
     dec:	f1 f7       	brne	.-4      	; 0xdea <lcd_st7735_init+0x54>
     dee:	00 c0       	rjmp	.+0      	; 0xdf0 <lcd_st7735_init+0x5a>
     df0:	00 00       	nop
     df2:	8a e3       	ldi	r24, 0x3A	; 58
     df4:	0e 94 c3 06 	call	0xd86	; 0xd86 <lcd_st7735_send_cmd>
     df8:	85 e0       	ldi	r24, 0x05	; 5
     dfa:	0e 94 c7 06 	call	0xd8e	; 0xd8e <lcd_st7735_send_data>
     dfe:	86 e3       	ldi	r24, 0x36	; 54
     e00:	0e 94 c3 06 	call	0xd86	; 0xd86 <lcd_st7735_send_cmd>
     e04:	84 e1       	ldi	r24, 0x14	; 20
     e06:	0e 94 c7 06 	call	0xd8e	; 0xd8e <lcd_st7735_send_data>
     e0a:	89 e2       	ldi	r24, 0x29	; 41
     e0c:	0e 94 c3 06 	call	0xd86	; 0xd86 <lcd_st7735_send_cmd>
     e10:	92 9a       	sbi	0x12, 2	; 18
     e12:	26 96       	adiw	r28, 0x06	; 6
     e14:	0f b6       	in	r0, 0x3f	; 63
     e16:	f8 94       	cli
     e18:	de bf       	out	0x3e, r29	; 62
     e1a:	0f be       	out	0x3f, r0	; 63
     e1c:	cd bf       	out	0x3d, r28	; 61
     e1e:	df 91       	pop	r29
     e20:	cf 91       	pop	r28
     e22:	08 95       	ret

00000e24 <lcd_st7735_at>:
     e24:	0f 93       	push	r16
     e26:	1f 93       	push	r17
     e28:	cf 93       	push	r28
     e2a:	df 93       	push	r29
     e2c:	08 2f       	mov	r16, r24
     e2e:	d6 2f       	mov	r29, r22
     e30:	14 2f       	mov	r17, r20
     e32:	c2 2f       	mov	r28, r18
     e34:	8a e2       	ldi	r24, 0x2A	; 42
     e36:	0e 94 c3 06 	call	0xd86	; 0xd86 <lcd_st7735_send_cmd>
     e3a:	80 e0       	ldi	r24, 0x00	; 0
     e3c:	0e 94 c7 06 	call	0xd8e	; 0xd8e <lcd_st7735_send_data>
     e40:	80 2f       	mov	r24, r16
     e42:	0e 94 c7 06 	call	0xd8e	; 0xd8e <lcd_st7735_send_data>
     e46:	80 e0       	ldi	r24, 0x00	; 0
     e48:	0e 94 c7 06 	call	0xd8e	; 0xd8e <lcd_st7735_send_data>
     e4c:	81 2f       	mov	r24, r17
     e4e:	0e 94 c7 06 	call	0xd8e	; 0xd8e <lcd_st7735_send_data>
     e52:	8b e2       	ldi	r24, 0x2B	; 43
     e54:	0e 94 c3 06 	call	0xd86	; 0xd86 <lcd_st7735_send_cmd>
     e58:	80 e0       	ldi	r24, 0x00	; 0
     e5a:	0e 94 c7 06 	call	0xd8e	; 0xd8e <lcd_st7735_send_data>
     e5e:	8d 2f       	mov	r24, r29
     e60:	0e 94 c7 06 	call	0xd8e	; 0xd8e <lcd_st7735_send_data>
     e64:	80 e0       	ldi	r24, 0x00	; 0
     e66:	0e 94 c7 06 	call	0xd8e	; 0xd8e <lcd_st7735_send_data>
     e6a:	8c 2f       	mov	r24, r28
     e6c:	0e 94 c7 06 	call	0xd8e	; 0xd8e <lcd_st7735_send_data>
     e70:	df 91       	pop	r29
     e72:	cf 91       	pop	r28
     e74:	1f 91       	pop	r17
     e76:	0f 91       	pop	r16
     e78:	08 95       	ret

00000e7a <lcd_st7735_full_rect>:
     e7a:	9f 92       	push	r9
     e7c:	af 92       	push	r10
     e7e:	bf 92       	push	r11
     e80:	cf 92       	push	r12
     e82:	df 92       	push	r13
     e84:	ef 92       	push	r14
     e86:	ff 92       	push	r15
     e88:	0f 93       	push	r16
     e8a:	1f 93       	push	r17
     e8c:	cf 93       	push	r28
     e8e:	df 93       	push	r29
     e90:	d8 2f       	mov	r29, r24
     e92:	96 2e       	mov	r9, r22
     e94:	c4 2e       	mov	r12, r20
     e96:	e2 2e       	mov	r14, r18
     e98:	92 98       	cbi	0x12, 2	; 18
     e9a:	24 2f       	mov	r18, r20
     e9c:	4e 2d       	mov	r20, r14
     e9e:	68 2f       	mov	r22, r24
     ea0:	89 2d       	mov	r24, r9
     ea2:	0e 94 12 07 	call	0xe24	; 0xe24 <lcd_st7735_at>
     ea6:	8c e2       	ldi	r24, 0x2C	; 44
     ea8:	0e 94 c3 06 	call	0xd86	; 0xd86 <lcd_st7735_send_cmd>
     eac:	d1 2c       	mov	r13, r1
     eae:	8f ef       	ldi	r24, 0xFF	; 255
     eb0:	c8 1a       	sub	r12, r24
     eb2:	d8 0a       	sbc	r13, r24
     eb4:	8d 2f       	mov	r24, r29
     eb6:	90 e0       	ldi	r25, 0x00	; 0
     eb8:	8c 15       	cp	r24, r12
     eba:	9d 05       	cpc	r25, r13
     ebc:	f4 f4       	brge	.+60     	; 0xefa <lcd_st7735_full_rect+0x80>
     ebe:	f1 2c       	mov	r15, r1
     ec0:	8f ef       	ldi	r24, 0xFF	; 255
     ec2:	e8 1a       	sub	r14, r24
     ec4:	f8 0a       	sbc	r15, r24
     ec6:	a9 2c       	mov	r10, r9
     ec8:	b1 2c       	mov	r11, r1
     eca:	13 c0       	rjmp	.+38     	; 0xef2 <lcd_st7735_full_rect+0x78>
     ecc:	c9 2d       	mov	r28, r9
     ece:	81 2f       	mov	r24, r17
     ed0:	0e 94 c7 06 	call	0xd8e	; 0xd8e <lcd_st7735_send_data>
     ed4:	80 2f       	mov	r24, r16
     ed6:	0e 94 c7 06 	call	0xd8e	; 0xd8e <lcd_st7735_send_data>
     eda:	cf 5f       	subi	r28, 0xFF	; 255
     edc:	2c 2f       	mov	r18, r28
     ede:	30 e0       	ldi	r19, 0x00	; 0
     ee0:	2e 15       	cp	r18, r14
     ee2:	3f 05       	cpc	r19, r15
     ee4:	a4 f3       	brlt	.-24     	; 0xece <lcd_st7735_full_rect+0x54>
     ee6:	df 5f       	subi	r29, 0xFF	; 255
     ee8:	2d 2f       	mov	r18, r29
     eea:	30 e0       	ldi	r19, 0x00	; 0
     eec:	2c 15       	cp	r18, r12
     eee:	3d 05       	cpc	r19, r13
     ef0:	24 f4       	brge	.+8      	; 0xefa <lcd_st7735_full_rect+0x80>
     ef2:	ae 14       	cp	r10, r14
     ef4:	bf 04       	cpc	r11, r15
     ef6:	54 f3       	brlt	.-44     	; 0xecc <lcd_st7735_full_rect+0x52>
     ef8:	f6 cf       	rjmp	.-20     	; 0xee6 <lcd_st7735_full_rect+0x6c>
     efa:	92 9a       	sbi	0x12, 2	; 18
     efc:	df 91       	pop	r29
     efe:	cf 91       	pop	r28
     f00:	1f 91       	pop	r17
     f02:	0f 91       	pop	r16
     f04:	ff 90       	pop	r15
     f06:	ef 90       	pop	r14
     f08:	df 90       	pop	r13
     f0a:	cf 90       	pop	r12
     f0c:	bf 90       	pop	r11
     f0e:	af 90       	pop	r10
     f10:	9f 90       	pop	r9
     f12:	08 95       	ret

00000f14 <lcd_st7735_screen>:
     f14:	0f 93       	push	r16
     f16:	1f 93       	push	r17
     f18:	8c 01       	movw	r16, r24
     f1a:	2f e7       	ldi	r18, 0x7F	; 127
     f1c:	4f e9       	ldi	r20, 0x9F	; 159
     f1e:	60 e0       	ldi	r22, 0x00	; 0
     f20:	80 e0       	ldi	r24, 0x00	; 0
     f22:	0e 94 3d 07 	call	0xe7a	; 0xe7a <lcd_st7735_full_rect>
     f26:	1f 91       	pop	r17
     f28:	0f 91       	pop	r16
     f2a:	08 95       	ret

00000f2c <lcd_st7735_putchar>:
     f2c:	6f 92       	push	r6
     f2e:	7f 92       	push	r7
     f30:	8f 92       	push	r8
     f32:	9f 92       	push	r9
     f34:	af 92       	push	r10
     f36:	bf 92       	push	r11
     f38:	cf 92       	push	r12
     f3a:	df 92       	push	r13
     f3c:	ef 92       	push	r14
     f3e:	ff 92       	push	r15
     f40:	0f 93       	push	r16
     f42:	1f 93       	push	r17
     f44:	cf 93       	push	r28
     f46:	df 93       	push	r29
     f48:	98 2f       	mov	r25, r24
     f4a:	86 2f       	mov	r24, r22
     f4c:	c4 2f       	mov	r28, r20
     f4e:	82 2e       	mov	r8, r18
     f50:	93 2e       	mov	r9, r19
     f52:	92 98       	cbi	0x12, 2	; 18
     f54:	28 e0       	ldi	r18, 0x08	; 8
     f56:	29 0f       	add	r18, r25
     f58:	4c e0       	ldi	r20, 0x0C	; 12
     f5a:	46 0f       	add	r20, r22
     f5c:	69 2f       	mov	r22, r25
     f5e:	0e 94 12 07 	call	0xe24	; 0xe24 <lcd_st7735_at>
     f62:	8c e2       	ldi	r24, 0x2C	; 44
     f64:	0e 94 c3 06 	call	0xd86	; 0xd86 <lcd_st7735_send_cmd>
     f68:	8c 2f       	mov	r24, r28
     f6a:	90 e0       	ldi	r25, 0x00	; 0
     f6c:	80 97       	sbiw	r24, 0x20	; 32
     f6e:	88 0f       	add	r24, r24
     f70:	99 1f       	adc	r25, r25
     f72:	6c 01       	movw	r12, r24
     f74:	cc 0c       	add	r12, r12
     f76:	dd 1c       	adc	r13, r13
     f78:	cc 0c       	add	r12, r12
     f7a:	dd 1c       	adc	r13, r13
     f7c:	cc 0c       	add	r12, r12
     f7e:	dd 1c       	adc	r13, r13
     f80:	96 01       	movw	r18, r12
     f82:	28 1b       	sub	r18, r24
     f84:	39 0b       	sbc	r19, r25
     f86:	f9 01       	movw	r30, r18
     f88:	ec 59       	subi	r30, 0x9C	; 156
     f8a:	ff 4f       	sbci	r31, 0xFF	; 255
     f8c:	7f 01       	movw	r14, r30
     f8e:	25 59       	subi	r18, 0x95	; 149
     f90:	3f 4f       	sbci	r19, 0xFF	; 255
     f92:	69 01       	movw	r12, r18
     f94:	71 2c       	mov	r7, r1
     f96:	a0 2e       	mov	r10, r16
     f98:	b1 2e       	mov	r11, r17
     f9a:	19 c0       	rjmp	.+50     	; 0xfce <lcd_st7735_putchar+0xa2>
     f9c:	f7 01       	movw	r30, r14
     f9e:	d4 91       	lpm	r29, Z
     fa0:	c7 2d       	mov	r28, r7
     fa2:	dd 23       	and	r29, r29
     fa4:	1c f0       	brlt	.+6      	; 0xfac <lcd_st7735_putchar+0x80>
     fa6:	6a 2c       	mov	r6, r10
     fa8:	8b 2d       	mov	r24, r11
     faa:	02 c0       	rjmp	.+4      	; 0xfb0 <lcd_st7735_putchar+0x84>
     fac:	68 2c       	mov	r6, r8
     fae:	89 2d       	mov	r24, r9
     fb0:	dd 0f       	add	r29, r29
     fb2:	0e 94 c7 06 	call	0xd8e	; 0xd8e <lcd_st7735_send_data>
     fb6:	86 2d       	mov	r24, r6
     fb8:	0e 94 c7 06 	call	0xd8e	; 0xd8e <lcd_st7735_send_data>
     fbc:	cf 5f       	subi	r28, 0xFF	; 255
     fbe:	c7 30       	cpi	r28, 0x07	; 7
     fc0:	81 f7       	brne	.-32     	; 0xfa2 <lcd_st7735_putchar+0x76>
     fc2:	ff ef       	ldi	r31, 0xFF	; 255
     fc4:	ef 1a       	sub	r14, r31
     fc6:	ff 0a       	sbc	r15, r31
     fc8:	ec 14       	cp	r14, r12
     fca:	fd 04       	cpc	r15, r13
     fcc:	b9 f0       	breq	.+46     	; 0xffc <lcd_st7735_putchar+0xd0>
     fce:	f7 01       	movw	r30, r14
     fd0:	37 96       	adiw	r30, 0x07	; 7
     fd2:	c4 91       	lpm	r28, Z
     fd4:	cc 0f       	add	r28, r28
     fd6:	cc 0f       	add	r28, r28
     fd8:	d7 2d       	mov	r29, r7
     fda:	cc 23       	and	r28, r28
     fdc:	1c f0       	brlt	.+6      	; 0xfe4 <lcd_st7735_putchar+0xb8>
     fde:	6a 2c       	mov	r6, r10
     fe0:	8b 2d       	mov	r24, r11
     fe2:	02 c0       	rjmp	.+4      	; 0xfe8 <lcd_st7735_putchar+0xbc>
     fe4:	68 2c       	mov	r6, r8
     fe6:	89 2d       	mov	r24, r9
     fe8:	cc 0f       	add	r28, r28
     fea:	0e 94 c7 06 	call	0xd8e	; 0xd8e <lcd_st7735_send_data>
     fee:	86 2d       	mov	r24, r6
     ff0:	0e 94 c7 06 	call	0xd8e	; 0xd8e <lcd_st7735_send_data>
     ff4:	df 5f       	subi	r29, 0xFF	; 255
     ff6:	d6 30       	cpi	r29, 0x06	; 6
     ff8:	81 f7       	brne	.-32     	; 0xfda <lcd_st7735_putchar+0xae>
     ffa:	d0 cf       	rjmp	.-96     	; 0xf9c <lcd_st7735_putchar+0x70>
     ffc:	cd e0       	ldi	r28, 0x0D	; 13
     ffe:	81 2f       	mov	r24, r17
    1000:	0e 94 c7 06 	call	0xd8e	; 0xd8e <lcd_st7735_send_data>
    1004:	80 2f       	mov	r24, r16
    1006:	0e 94 c7 06 	call	0xd8e	; 0xd8e <lcd_st7735_send_data>
    100a:	c1 50       	subi	r28, 0x01	; 1
    100c:	c1 f7       	brne	.-16     	; 0xffe <lcd_st7735_putchar+0xd2>
    100e:	92 9a       	sbi	0x12, 2	; 18
    1010:	df 91       	pop	r29
    1012:	cf 91       	pop	r28
    1014:	1f 91       	pop	r17
    1016:	0f 91       	pop	r16
    1018:	ff 90       	pop	r15
    101a:	ef 90       	pop	r14
    101c:	df 90       	pop	r13
    101e:	cf 90       	pop	r12
    1020:	bf 90       	pop	r11
    1022:	af 90       	pop	r10
    1024:	9f 90       	pop	r9
    1026:	8f 90       	pop	r8
    1028:	7f 90       	pop	r7
    102a:	6f 90       	pop	r6
    102c:	08 95       	ret

0000102e <lcd_st7735_putstr>:
    102e:	af 92       	push	r10
    1030:	bf 92       	push	r11
    1032:	cf 92       	push	r12
    1034:	df 92       	push	r13
    1036:	ef 92       	push	r14
    1038:	ff 92       	push	r15
    103a:	0f 93       	push	r16
    103c:	1f 93       	push	r17
    103e:	cf 93       	push	r28
    1040:	df 93       	push	r29
    1042:	c8 2f       	mov	r28, r24
    1044:	d6 2f       	mov	r29, r22
    1046:	fa 01       	movw	r30, r20
    1048:	69 01       	movw	r12, r18
    104a:	58 01       	movw	r10, r16
    104c:	40 81       	ld	r20, Z
    104e:	44 23       	and	r20, r20
    1050:	81 f0       	breq	.+32     	; 0x1072 <lcd_st7735_putstr+0x44>
    1052:	7f 01       	movw	r14, r30
    1054:	8f ef       	ldi	r24, 0xFF	; 255
    1056:	e8 1a       	sub	r14, r24
    1058:	f8 0a       	sbc	r15, r24
    105a:	85 01       	movw	r16, r10
    105c:	96 01       	movw	r18, r12
    105e:	6d 2f       	mov	r22, r29
    1060:	8c 2f       	mov	r24, r28
    1062:	0e 94 96 07 	call	0xf2c	; 0xf2c <lcd_st7735_putchar>
    1066:	c8 5f       	subi	r28, 0xF8	; 248
    1068:	f7 01       	movw	r30, r14
    106a:	41 91       	ld	r20, Z+
    106c:	7f 01       	movw	r14, r30
    106e:	41 11       	cpse	r20, r1
    1070:	f4 cf       	rjmp	.-24     	; 0x105a <lcd_st7735_putstr+0x2c>
    1072:	df 91       	pop	r29
    1074:	cf 91       	pop	r28
    1076:	1f 91       	pop	r17
    1078:	0f 91       	pop	r16
    107a:	ff 90       	pop	r15
    107c:	ef 90       	pop	r14
    107e:	df 90       	pop	r13
    1080:	cf 90       	pop	r12
    1082:	bf 90       	pop	r11
    1084:	af 90       	pop	r10
    1086:	08 95       	ret

00001088 <main>:


int main(void)
{
// Здесь должны находиться ваши локальные переменные
DDRB|=(1<<PB3);
    1088:	bb 9a       	sbi	0x17, 3	; 23
PORTB|=(1<<PB3);
    108a:	c3 9a       	sbi	0x18, 3	; 24
// Инициализация TFT ST7735
lcd_st7735_init();
    108c:	0e 94 cb 06 	call	0xd96	; 0xd96 <lcd_st7735_init>

// Закрасить весь экран цветом
lcd_st7735_screen(RGB16(0xFFFFFF));
    1090:	8f ef       	ldi	r24, 0xFF	; 255
    1092:	9f ef       	ldi	r25, 0xFF	; 255
    1094:	0e 94 8a 07 	call	0xf14	; 0xf14 <lcd_st7735_screen>
	else
	{
		y = 0;
	}
	x = x*8;
	lcd_st7735_putstr(x, y, str, charColor, bkgColor);
    1098:	0f ef       	ldi	r16, 0xFF	; 255
    109a:	1f ef       	ldi	r17, 0xFF	; 255
    109c:	20 e0       	ldi	r18, 0x00	; 0
    109e:	30 e0       	ldi	r19, 0x00	; 0
    10a0:	40 e6       	ldi	r20, 0x60	; 96
    10a2:	50 e0       	ldi	r21, 0x00	; 0
    10a4:	60 e0       	ldi	r22, 0x00	; 0
    10a6:	80 e0       	ldi	r24, 0x00	; 0
    10a8:	0e 94 17 08 	call	0x102e	; 0x102e <lcd_st7735_putstr>

	while(1)
	{

		// Здесь должен находиться ваш код 
	}
    10ac:	ff cf       	rjmp	.-2      	; 0x10ac <main+0x24>

000010ae <__tablejump2__>:
    10ae:	ee 0f       	add	r30, r30
    10b0:	ff 1f       	adc	r31, r31
    10b2:	05 90       	lpm	r0, Z+
    10b4:	f4 91       	lpm	r31, Z
    10b6:	e0 2d       	mov	r30, r0
    10b8:	09 94       	ijmp

000010ba <_exit>:
    10ba:	f8 94       	cli

000010bc <__stop_program>:
    10bc:	ff cf       	rjmp	.-2      	; 0x10bc <__stop_program>
