
AT16ST7735.elf:     file format elf32-avr

Sections:
Idx Name          Size      VMA       LMA       File off  Algn
  0 .text         00001110  00000000  00000000  00000054  2**1
                  CONTENTS, ALLOC, LOAD, READONLY, CODE
  1 .data         00000000  00800060  00800060  00001164  2**0
                  CONTENTS, ALLOC, LOAD, DATA
  2 .comment      00000030  00000000  00000000  00001164  2**0
                  CONTENTS, READONLY
  3 .note.gnu.avr.deviceinfo 0000003c  00000000  00000000  00001194  2**2
                  CONTENTS, READONLY
  4 .debug_aranges 000000c8  00000000  00000000  000011d0  2**0
                  CONTENTS, READONLY, DEBUGGING
  5 .debug_info   00001ca6  00000000  00000000  00001298  2**0
                  CONTENTS, READONLY, DEBUGGING
  6 .debug_abbrev 000007bd  00000000  00000000  00002f3e  2**0
                  CONTENTS, READONLY, DEBUGGING
  7 .debug_line   00000ae4  00000000  00000000  000036fb  2**0
                  CONTENTS, READONLY, DEBUGGING
  8 .debug_frame  000003ec  00000000  00000000  000041e0  2**2
                  CONTENTS, READONLY, DEBUGGING
  9 .debug_str    000004ca  00000000  00000000  000045cc  2**0
                  CONTENTS, READONLY, DEBUGGING
 10 .debug_loc    00001b08  00000000  00000000  00004a96  2**0
                  CONTENTS, READONLY, DEBUGGING
 11 .debug_ranges 000000f8  00000000  00000000  0000659e  2**0
                  CONTENTS, READONLY, DEBUGGING

Disassembly of section .text:

00000000 <__vectors>:
       0:	0c 94 4a 06 	jmp	0xc94	; 0xc94 <__ctors_end>
       4:	0c 94 5f 06 	jmp	0xcbe	; 0xcbe <__bad_interrupt>
       8:	0c 94 5f 06 	jmp	0xcbe	; 0xcbe <__bad_interrupt>
       c:	0c 94 5f 06 	jmp	0xcbe	; 0xcbe <__bad_interrupt>
      10:	0c 94 5f 06 	jmp	0xcbe	; 0xcbe <__bad_interrupt>
      14:	0c 94 5f 06 	jmp	0xcbe	; 0xcbe <__bad_interrupt>
      18:	0c 94 5f 06 	jmp	0xcbe	; 0xcbe <__bad_interrupt>
      1c:	0c 94 5f 06 	jmp	0xcbe	; 0xcbe <__bad_interrupt>
      20:	0c 94 5f 06 	jmp	0xcbe	; 0xcbe <__bad_interrupt>
      24:	0c 94 5f 06 	jmp	0xcbe	; 0xcbe <__bad_interrupt>
      28:	0c 94 5f 06 	jmp	0xcbe	; 0xcbe <__bad_interrupt>
      2c:	0c 94 5f 06 	jmp	0xcbe	; 0xcbe <__bad_interrupt>
      30:	0c 94 5f 06 	jmp	0xcbe	; 0xcbe <__bad_interrupt>
      34:	0c 94 5f 06 	jmp	0xcbe	; 0xcbe <__bad_interrupt>
      38:	0c 94 5f 06 	jmp	0xcbe	; 0xcbe <__bad_interrupt>
      3c:	0c 94 5f 06 	jmp	0xcbe	; 0xcbe <__bad_interrupt>
      40:	0c 94 5f 06 	jmp	0xcbe	; 0xcbe <__bad_interrupt>
      44:	0c 94 5f 06 	jmp	0xcbe	; 0xcbe <__bad_interrupt>
      48:	0c 94 5f 06 	jmp	0xcbe	; 0xcbe <__bad_interrupt>
      4c:	0c 94 5f 06 	jmp	0xcbe	; 0xcbe <__bad_interrupt>
      50:	0c 94 5f 06 	jmp	0xcbe	; 0xcbe <__bad_interrupt>

00000054 <NewBFontLAT>:
	...
      64:	00 f8 00 00 00 00 00 00 04 00 00 00 00 38 08 00     .............8..
      74:	38 08 00 00 00 00 00 00 00 00 00 40 e0 58 e0 58     8..........@.X.X
      84:	00 00 0d 03 0d 03 01 00 00 60 90 98 90 00 00 00     .........`......
      94:	03 02 0e 01 00 00 00 90 a8 90 40 40 00 00 00 00     ..........@@....
      a4:	02 05 02 00 00 00 c0 20 20 00 00 00 03 04 05 02     .......  .......
      b4:	05 00 00 00 00 78 00 00 00 00 00 00 00 00 00 00     .....x..........
      c4:	00 00 00 e0 18 00 00 00 00 00 07 18 00 00 00 00     ................
      d4:	18 e0 00 00 00 00 00 18 07 00 00 00 00 10 d0 38     ...............8
      e4:	d0 10 00 00 00 00 00 00 00 00 80 80 80 f0 80 80     ................
      f4:	80 00 00 00 07 00 00 00 00 00 00 00 00 00 00 00     ................
     104:	00 18 0e 02 00 00 00 80 80 80 80 80 00 00 00 00     ................
	...
     120:	00 06 06 00 00 00 00 00 00 80 60 18 00 00 08 06     ..........`.....
     130:	01 00 00 00 00 f0 08 08 08 f0 00 00 03 04 04 04     ................
     140:	03 00 00 00 08 f8 00 00 00 00 04 04 07 04 04 00     ................
     150:	00 10 08 88 48 30 00 00 06 05 04 04 06 00 00 10     ....H0..........
     160:	08 48 48 b0 00 00 02 04 04 04 03 00 00 80 40 30     .HH...........@0
     170:	08 f8 00 00 01 01 01 05 07 05 00 00 78 48 48 88     ............xHH.
     180:	00 00 02 04 04 04 03 00 00 e0 50 48 48 88 00 00     ..........PHH...
     190:	03 04 04 04 03 00 00 18 08 08 c8 38 00 00 00 00     ...........8....
     1a0:	06 01 00 00 00 b0 48 48 48 b0 00 00 03 04 04 04     ......HHH.......
     1b0:	03 00 00 70 88 88 88 f0 00 00 04 04 04 02 01 00     ...p............
     1c0:	00 00 60 60 00 00 00 00 00 06 06 00 00 00 00 00     ..``............
     1d0:	00 60 60 00 00 00 00 0c 06 02 00 00 80 40 40 20     .``..........@@ 
     1e0:	10 10 00 00 01 01 02 04 04 00 00 40 40 40 40 40     ...........@@@@@
     1f0:	00 00 01 01 01 01 01 00 10 10 20 40 40 80 00 04     .......... @@...
     200:	04 02 01 01 00 00 00 00 20 10 90 60 00 00 00 04     ........ ..`....
     210:	05 00 00 00 00 f8 04 c4 24 f8 00 00 07 08 08 09     ........$.......
     220:	05 00 00 00 e8 18 e0 00 00 04 07 05 01 05 07 04     ................
     230:	08 f8 48 48 48 b0 00 04 07 04 04 04 03 00 00 f0     ..HHH...........
     240:	08 08 08 18 00 00 03 04 04 04 02 00 08 f8 08 08     ................
     250:	10 e0 00 04 07 04 04 02 01 00 08 f8 48 e8 08 18     ............H...
     260:	00 04 07 04 04 04 06 00 00 08 f8 48 e8 08 18 00     ...........H....
     270:	04 07 04 00 00 00 00 f0 08 08 88 98 80 00 03 04     ................
     280:	04 04 03 00 08 f8 48 40 48 f8 08 04 07 04 00 04     ......H@H.......
     290:	07 04 00 08 08 f8 08 08 00 00 04 04 07 04 04 00     ................
     2a0:	00 80 08 08 f8 08 00 00 03 04 04 03 00 00 08 f8     ................
     2b0:	88 c0 28 18 08 04 07 04 00 01 06 04 00 08 f8 08     ..(.............
     2c0:	00 00 00 00 04 07 04 04 07 00 08 f8 38 c0 38 f8     ............8.8.
     2d0:	08 04 07 04 00 04 07 04 08 f8 38 c0 08 f8 08 04     ..........8.....
     2e0:	07 04 01 06 07 00 00 f0 08 08 08 f0 00 00 03 04     ................
     2f0:	04 04 03 00 00 08 f8 88 88 70 00 00 04 07 04 00     .........p......
     300:	00 00 00 f0 08 08 08 f0 00 00 03 04 0c 0c 0b 00     ................
     310:	08 f8 88 88 88 70 00 04 07 04 00 01 02 04 00 30     .....p.........0
     320:	48 48 50 98 00 00 06 02 04 04 03 00 18 08 08 f8     HHP.............
     330:	08 08 18 00 00 04 07 04 00 00 08 f8 08 00 08 f8     ................
     340:	08 00 03 04 04 04 03 00 08 38 c8 00 c8 38 08 00     .........8...8..
     350:	00 01 06 01 00 00 08 f8 08 c0 08 f8 08 00 03 04     ................
     360:	03 04 03 00 08 18 20 c0 20 18 08 04 06 01 00 01     ...... . .......
     370:	06 04 08 18 68 80 68 18 08 00 00 04 07 04 00 00     ....h.h.........
     380:	00 18 08 c8 28 18 00 00 06 05 04 04 06 00 00 00     ....(...........
     390:	f8 08 08 00 00 00 00 1f 10 10 00 00 00 08 70 80     ..............p.
     3a0:	00 00 00 00 00 00 01 0e 00 00 00 00 08 08 f8 00     ................
     3b0:	00 00 00 10 10 1f 00 00 00 40 20 18 20 40 00 00     .........@ . @..
	...
     3cc:	00 20 20 20 20 20 20 20 00 00 00 08 10 00 00 00     .       ........
     3dc:	00 00 00 00 00 00 00 40 a0 a0 a0 c0 00 00 03 04     .......@........
     3ec:	04 04 07 04 08 f8 40 20 20 c0 00 04 07 04 04 04     ......@  .......
     3fc:	03 00 00 c0 20 20 20 60 00 00 03 04 04 04 02 00     ....   `........
     40c:	00 c0 20 20 48 f8 00 00 03 04 04 04 07 04 00 c0     ..  H...........
     41c:	a0 a0 a0 c0 00 00 03 04 04 04 04 00 00 20 f0 28     ............. .(
     42c:	28 28 00 00 04 07 04 04 04 00 00 c0 20 20 40 e0     ((..........  @.
     43c:	20 00 03 14 14 14 0f 00 08 f8 40 20 20 c0 00 04      .........@  ...
     44c:	07 04 00 04 07 04 00 20 20 e8 00 00 00 00 04 04     .......  .......
     45c:	07 04 04 00 00 20 20 28 e0 00 00 00 10 10 10 0f     .....  (........
     46c:	00 00 08 f8 80 a0 60 20 00 04 07 00 05 06 04 00     ......` ........
     47c:	00 00 08 f8 00 00 00 00 04 04 07 04 04 00 20 e0     .............. .
     48c:	20 c0 20 c0 00 04 07 04 07 04 07 04 20 e0 40 20      . ......... .@ 
     49c:	20 c0 00 04 07 04 00 04 07 04 00 c0 20 20 20 c0      ...........   .
     4ac:	00 00 03 04 04 04 03 00 20 e0 40 20 20 c0 00 10     ........ .@  ...
     4bc:	1f 14 04 04 03 00 00 c0 20 20 40 e0 20 00 03 04     ........  @. ...
     4cc:	04 14 1f 10 00 20 e0 40 20 20 00 00 04 07 04 04     ..... .@  ......
     4dc:	04 00 00 40 a0 a0 a0 60 00 00 06 04 04 04 03 00     ...@...`........
     4ec:	00 20 f0 20 20 20 00 00 00 03 04 04 04 02 20 e0     . .   ........ .
     4fc:	00 00 20 e0 00 00 03 04 04 02 07 04 20 e0 20 00     .. ......... . .
     50c:	20 e0 20 00 00 03 04 03 00 00 20 e0 20 80 20 e0      . ....... . . .
     51c:	20 00 03 04 03 04 03 00 20 60 80 80 60 20 00 04      ....... `..` ..
     52c:	06 01 01 06 04 00 20 60 a0 00 20 e0 20 00 10 11     ...... `.. . ...
     53c:	1e 13 00 00 00 60 20 a0 60 20 00 00 06 05 04 04     .....` .` ......
     54c:	06 00 00 00 00 f0 08 00 00 00 00 01 0e 10 00 00     ................
     55c:	00 00 00 f8 00 00 00 00 00 00 0f 00 00 00 00 00     ................
     56c:	08 f0 00 00 00 00 00 10 0e 01 00 00 00 00 80 00     ................
     57c:	00 80 00 00 01 00 01 01 00 00 f8 08 08 08 08 f8     ................
     58c:	00 07 04 04 04 04 07 00 18 08 f8 88 58 40 80 00     ............X@..
     59c:	04 07 04 00 04 03 00 08 f8 0a 09 08 38 00 04 07     ............8...
     5ac:	04 00 00 00 00 00 00 00 00 00 00 00 18 0e 02 00     ................
     5bc:	00 00 00 20 e0 28 24 e0 00 00 04 07 04 00 01 00     ... .($.........
	...
     5d4:	08 04 0a 04 02 00 00 00 00 00 00 00 00 00 04 00     ................
     5e4:	04 00 04 00 00 20 20 f8 20 20 00 00 00 00 07 00     .....  .  ......
     5f4:	00 00 00 20 20 f8 20 20 00 00 01 01 07 01 01 00     ...  .  ........
     604:	a0 f0 a8 a8 a8 a8 18 00 01 02 04 04 04 02 10 68     ...............h
     614:	50 20 20 00 00 00 02 05 02 02 05 02 00 08 f8 08     P  .............
     624:	f8 48 80 06 04 03 04 07 04 03 00 80 40 20 00 00     .H..........@ ..
     634:	00 00 01 02 04 00 00 00 f8 88 80 f8 88 80 00 07     ................
     644:	04 00 07 04 04 03 08 f8 48 a2 11 08 18 04 07 04     ........H.......
     654:	00 01 06 04 18 08 f8 88 58 c0 00 00 04 07 04 00     ........X.......
     664:	07 04 08 f8 08 00 08 f8 08 04 07 04 1c 04 07 04     ................
     674:	10 f8 50 50 40 80 00 04 07 14 10 10 0f 00 00 00     ..PP@...........
     684:	00 08 38 60 00 00 00 00 00 00 00 00 00 60 38 08     ..8`.........`8.
	...
     69c:	00 00 00 08 10 28 10 20 00 00 00 00 00 00 00 00     .....(. ........
     6ac:	00 20 10 28 10 08 00 00 00 00 00 00 00 00 00 00     . .(............
     6bc:	e0 e0 e0 00 00 00 00 00 00 00 00 00 00 80 80 80     ................
     6cc:	80 80 00 00 00 00 00 00 00 00 80 80 80 80 80 80     ................
     6dc:	80 00 00 00 00 00 00 00 f8 08 08 08 08 f8 00 07     ................
     6ec:	04 04 04 04 07 00 78 48 78 58 20 58 78 00 00 00     ......xHxX Xx...
     6fc:	00 00 00 00 20 e0 20 e0 a0 80 00 04 07 00 07 04     .... . .........
     70c:	07 00 00 00 00 20 40 80 00 00 00 00 04 02 01 00     ..... @.........
     71c:	20 e0 80 e0 a0 80 00 04 07 00 07 04 07 00 20 e0      ............. .
     72c:	a0 c8 24 60 00 04 07 04 00 01 06 04 10 f8 50 50     ..$`..........PP
     73c:	40 80 00 04 07 04 00 04 07 04 20 e0 20 00 20 e0     @......... . . .
     74c:	20 04 07 04 1c 04 07 04 00 00 00 00 00 00 00 00      ...............
     75c:	00 00 00 00 00 00 08 38 49 82 4a 39 08 00 04 06     .......8I.J9....
     76c:	01 00 00 00 20 60 a4 08 28 e4 20 00 18 11 0e 03     .... `..(. .....
     77c:	00 00 00 80 08 08 f8 08 00 00 03 04 04 03 00 00     ................
     78c:	00 10 e0 20 20 e0 10 00 02 01 01 01 01 02 00 08     ...  ...........
     79c:	f8 08 08 0e 00 00 04 07 04 00 00 00 00 00 00 78     ...............x
     7ac:	00 00 00 00 00 00 1e 00 00 00 00 60 b8 28 48 88     ...........`.(H.
     7bc:	18 00 0c 08 09 0a 0e 03 08 f8 4a e8 0a 18 00 04     ..........J.....
     7cc:	07 04 04 04 06 00 c0 20 d0 50 50 20 c0 01 02 05     ....... .PP ....
     7dc:	05 05 02 01 00 f0 48 48 48 18 00 00 03 04 04 04     ......HHH.......
     7ec:	02 00 00 00 80 40 00 80 40 00 01 02 04 01 02 04     .....@..@.......
     7fc:	00 00 00 00 00 00 00 01 01 01 01 01 01 07 00 80     ................
     80c:	80 80 80 80 00 00 00 00 00 00 00 00 c0 20 f0 b0     ............. ..
     81c:	70 20 c0 01 03 05 05 05 02 01 00 08 0a f8 0a 08     p ..............
     82c:	00 00 04 04 07 04 04 00 00 00 1c 14 1c 00 00 00     ................
     83c:	00 00 00 00 00 00 80 80 80 f0 80 80 80 04 04 04     ................
     84c:	07 04 04 04 00 08 08 f8 08 08 00 00 04 04 07 04     ................
     85c:	04 00 00 20 20 e8 00 00 00 00 04 04 07 04 04 00     ...  ...........
     86c:	00 20 e0 20 20 38 00 00 04 07 04 00 00 00 20 e0     . .  8........ .
     87c:	00 00 20 e0 00 00 1f 04 04 02 07 04 70 88 88 f8     .. .........p...
     88c:	08 f8 08 00 08 08 0f 00 0f 08 00 00 c0 c0 00 00     ................
	...
     8a4:	00 c0 a8 a0 a8 c0 00 00 03 04 04 04 04 00 08 f8     ................
     8b4:	70 88 f8 08 70 04 07 04 03 07 00 01 00 c0 a0 a0     p...p...........
     8c4:	20 60 00 00 03 04 04 04 02 00 40 80 00 40 80 00      `........@..@..
     8d4:	00 04 02 01 04 02 01 00 00 20 20 28 e0 00 00 00     .........  (....
     8e4:	10 10 10 0f 00 00 00 30 48 48 50 98 00 00 06 02     .......0HHP.....
     8f4:	04 04 03 00 00 40 a0 a0 a0 60 00 00 06 04 04 04     .....@...`......
     904:	03 00 00 20 28 e0 08 00 00 00 04 04 07 04 04 00     ... (...........
     914:	00 00 e8 18 e0 00 00 04 07 05 01 05 07 04 08 f8     ................
     924:	48 48 48 98 00 04 07 04 04 04 03 00 08 f8 48 48     HHH...........HH
     934:	48 b0 00 04 07 04 04 04 03 00 00 08 f8 08 08 08     H...............
     944:	38 00 04 07 04 00 00 00 08 f8 08 08 f8 08 00 1c     8...............
     954:	07 04 04 07 1c 00 08 f8 48 e8 08 18 00 04 07 04     ........H.......
     964:	04 04 06 00 08 18 a0 f8 a0 18 08 04 07 00 07 00     ................
     974:	07 04 00 38 10 48 48 b0 00 00 04 04 04 04 03 00     ...8.HH.........
     984:	08 f8 08 c0 30 f8 08 04 07 03 00 04 07 04 08 f8     ....0...........
     994:	09 c2 32 f9 08 04 07 03 00 04 07 04 08 f8 48 a0     ..2...........H.
     9a4:	10 08 18 04 07 04 00 01 06 04 00 08 f8 08 08 f8     ................
     9b4:	08 04 04 03 00 04 07 04 08 f8 38 c0 38 f8 08 04     ..........8.8...
     9c4:	07 04 00 04 07 04 08 f8 48 40 48 f8 08 04 07 04     ........H@H.....
     9d4:	00 04 07 04 00 f0 08 08 08 f0 00 00 03 04 04 04     ................
     9e4:	03 00 08 f8 08 08 08 f8 08 04 07 04 00 04 07 04     ................
     9f4:	00 08 f8 88 88 70 00 00 04 07 04 00 00 00 00 f0     .....p..........
     a04:	08 08 08 18 00 00 03 04 04 04 02 00 18 08 08 f8     ................
     a14:	08 08 18 00 00 04 07 04 00 00 08 38 48 80 48 38     ...........8H.H8
     a24:	08 00 04 06 01 00 00 00 c0 20 28 f8 28 20 c0 00     ......... (.( ..
     a34:	01 05 07 05 01 00 08 18 20 c0 20 18 08 04 06 01     ........ . .....
     a44:	00 01 06 04 08 f8 08 00 08 f8 08 04 07 04 04 04     ................
     a54:	07 1c 08 f8 08 00 88 f8 08 00 00 01 01 04 07 04     ................
     a64:	08 f8 00 f8 00 f8 08 04 07 04 07 04 07 04 08 f8     ................
     a74:	00 f8 00 f8 08 04 07 04 07 04 07 1c 78 08 f8 48     ............x..H
     a84:	40 40 80 00 04 07 04 04 04 03 08 f8 48 80 08 f8     @@..........H...
     a94:	08 04 07 04 03 04 07 04 08 f8 48 40 40 80 00 04     ..........H@@...
     aa4:	07 04 04 04 03 00 00 18 48 48 48 f0 00 00 02 04     ........HHH.....
     ab4:	04 04 03 00 08 f8 48 f0 08 08 f0 04 07 04 03 04     ......H.........
     ac4:	04 03 00 70 88 88 88 f8 08 04 03 00 00 04 07 04     ...p............
     ad4:	00 40 a0 a0 a0 c0 00 00 03 04 04 04 07 04 00 f0     .@..............
     ae4:	48 28 2c c0 00 00 03 04 04 04 03 00 00 20 e0 a0     H(,.......... ..
     af4:	a0 40 00 00 04 07 04 04 07 00 00 20 e0 20 20 e0     .@......... .  .
     b04:	00 00 04 07 04 00 01 00 00 20 e0 20 20 e0 20 0c     ......... .  . .
     b14:	04 07 04 04 07 0c 00 c0 a0 a0 a0 c0 00 00 03 04     ................
     b24:	04 04 04 00 60 20 40 e0 40 20 60 04 06 01 07 01     ....` @.@ `.....
     b34:	06 04 00 20 a0 a0 a0 40 00 00 04 04 04 04 03 00     ... ...@........
     b44:	20 e0 20 80 40 e0 20 04 07 02 01 04 07 04 20 e0      . .@. ....... .
     b54:	24 88 48 e4 20 04 07 02 01 04 07 04 20 e0 a0 c0     $.H. ....... ...
     b64:	20 60 00 04 07 04 00 01 06 04 00 20 e0 20 20 e0      `......... .  .
     b74:	20 06 04 03 00 04 07 04 20 e0 60 80 60 e0 20 04      ....... .`.`. .
     b84:	07 04 01 04 07 04 20 e0 a0 80 a0 e0 20 04 07 04     ...... ..... ...
     b94:	00 04 07 04 00 c0 20 20 20 c0 00 00 03 04 04 04     ......   .......
     ba4:	03 00 20 e0 20 20 20 e0 20 04 07 04 00 04 07 04     .. .   . .......
     bb4:	20 e0 40 20 20 c0 00 10 1f 14 04 04 03 00 00 c0      .@  ...........
     bc4:	20 20 20 60 00 00 03 04 04 04 02 00 00 e0 20 e0        `.......... .
     bd4:	20 e0 00 00 00 04 07 04 00 00 20 60 a0 00 20 e0      ......... `.. .
     be4:	20 00 18 11 0e 03 00 00 c0 20 28 f8 20 20 c0 03      ........ (.  ..
     bf4:	04 14 1f 14 04 03 20 60 80 80 60 20 00 04 06 01     ...... `..` ....
     c04:	01 06 04 00 20 e0 20 00 20 e0 20 04 07 04 04 04     .... . . . .....
     c14:	07 0c 20 e0 20 00 a0 e0 20 00 01 01 01 04 07 04     .. . ... .......
     c24:	20 e0 00 e0 00 e0 20 04 07 04 07 04 07 04 20 e0      ..... ....... .
     c34:	00 e0 00 e0 20 04 07 04 07 04 07 0c e0 20 e0 a0     .... ........ ..
     c44:	80 80 00 00 04 07 04 04 03 00 20 e0 a0 80 20 e0     .......... ... .
     c54:	20 04 07 04 07 04 07 04 20 e0 a0 80 80 00 00 04      ....... .......
     c64:	07 04 04 04 03 00 00 60 20 a0 a0 c0 00 00 02 04     .......` .......
     c74:	04 04 03 00 20 e0 a0 c0 20 20 c0 04 07 04 03 04     .... ...  ......
     c84:	04 03 00 c0 20 20 e0 20 00 04 06 01 05 07 04 00     ....  . ........

00000c94 <__ctors_end>:
     c94:	11 24       	eor	r1, r1
     c96:	1f be       	out	0x3f, r1	; 63
     c98:	cf e5       	ldi	r28, 0x5F	; 95
     c9a:	d4 e0       	ldi	r29, 0x04	; 4
     c9c:	de bf       	out	0x3e, r29	; 62
     c9e:	cd bf       	out	0x3d, r28	; 61

00000ca0 <__do_copy_data>:
     ca0:	10 e0       	ldi	r17, 0x00	; 0
     ca2:	a0 e6       	ldi	r26, 0x60	; 96
     ca4:	b0 e0       	ldi	r27, 0x00	; 0
     ca6:	e0 e1       	ldi	r30, 0x10	; 16
     ca8:	f1 e1       	ldi	r31, 0x11	; 17
     caa:	02 c0       	rjmp	.+4      	; 0xcb0 <__do_copy_data+0x10>
     cac:	05 90       	lpm	r0, Z+
     cae:	0d 92       	st	X+, r0
     cb0:	a0 36       	cpi	r26, 0x60	; 96
     cb2:	b1 07       	cpc	r27, r17
     cb4:	d9 f7       	brne	.-10     	; 0xcac <__do_copy_data+0xc>
     cb6:	0e 94 61 06 	call	0xcc2	; 0xcc2 <main>
     cba:	0c 94 86 08 	jmp	0x110c	; 0x110c <_exit>

00000cbe <__bad_interrupt>:
     cbe:	0c 94 00 00 	jmp	0	; 0x0 <__vectors>

00000cc2 <main>:

 unsigned char mas[70]="Привет парни";

int main(void)
{
    TFTInit();
     cc2:	0e 94 9d 06 	call	0xd3a	; 0xd3a <TFTInit>
	TFTSingleColor(WHITE);
     cc6:	8f ef       	ldi	r24, 0xFF	; 255
     cc8:	9f ef       	ldi	r25, 0xFF	; 255
     cca:	0e 94 ac 07 	call	0xf58	; 0xf58 <TFTSingleColor>
	lcd_st7735_putchar(20,22,'F',RED,GREEN);
     cce:	00 ee       	ldi	r16, 0xE0	; 224
     cd0:	17 e0       	ldi	r17, 0x07	; 7
     cd2:	20 e0       	ldi	r18, 0x00	; 0
     cd4:	38 ef       	ldi	r19, 0xF8	; 248
     cd6:	46 e4       	ldi	r20, 0x46	; 70
     cd8:	66 e1       	ldi	r22, 0x16	; 22
     cda:	84 e1       	ldi	r24, 0x14	; 20
     cdc:	0e 94 fe 07 	call	0xffc	; 0xffc <lcd_st7735_putchar>
	//DrawTriangle(20,20,60,70,80,20,RED,2);

	
    while (1) 
    {
    }
     ce0:	ff cf       	rjmp	.-2      	; 0xce0 <main+0x1e>

00000ce2 <write_byte>:
		 else
		 xx--;
		 if(y0>10)
		 y0=0;
	 }
 }
     ce2:	92 98       	cbi	0x12, 2	; 18
     ce4:	61 11       	cpse	r22, r1
     ce6:	02 c0       	rjmp	.+4      	; 0xcec <write_byte+0xa>
     ce8:	93 98       	cbi	0x12, 3	; 18
     cea:	01 c0       	rjmp	.+2      	; 0xcee <write_byte+0xc>
     cec:	93 9a       	sbi	0x12, 3	; 18
     cee:	95 9a       	sbi	0x12, 5	; 18
     cf0:	27 e0       	ldi	r18, 0x07	; 7
     cf2:	30 e0       	ldi	r19, 0x00	; 0
     cf4:	90 e0       	ldi	r25, 0x00	; 0
     cf6:	ac 01       	movw	r20, r24
     cf8:	02 2e       	mov	r0, r18
     cfa:	02 c0       	rjmp	.+4      	; 0xd00 <write_byte+0x1e>
     cfc:	55 95       	asr	r21
     cfe:	47 95       	ror	r20
     d00:	0a 94       	dec	r0
     d02:	e2 f7       	brpl	.-8      	; 0xcfc <write_byte+0x1a>
     d04:	40 ff       	sbrs	r20, 0
     d06:	02 c0       	rjmp	.+4      	; 0xd0c <write_byte+0x2a>
     d08:	94 9a       	sbi	0x12, 4	; 18
     d0a:	01 c0       	rjmp	.+2      	; 0xd0e <write_byte+0x2c>
     d0c:	94 98       	cbi	0x12, 4	; 18
     d0e:	95 98       	cbi	0x12, 5	; 18
     d10:	95 9a       	sbi	0x12, 5	; 18
     d12:	21 50       	subi	r18, 0x01	; 1
     d14:	31 09       	sbc	r19, r1
     d16:	78 f7       	brcc	.-34     	; 0xcf6 <write_byte+0x14>
     d18:	92 9a       	sbi	0x12, 2	; 18
     d1a:	08 95       	ret

00000d1c <Reset>:
     d1c:	97 98       	cbi	0x12, 7	; 18
     d1e:	8f ec       	ldi	r24, 0xCF	; 207
     d20:	97 e0       	ldi	r25, 0x07	; 7
     d22:	01 97       	sbiw	r24, 0x01	; 1
     d24:	f1 f7       	brne	.-4      	; 0xd22 <Reset+0x6>
     d26:	00 c0       	rjmp	.+0      	; 0xd28 <Reset+0xc>
     d28:	00 00       	nop
     d2a:	97 9a       	sbi	0x12, 7	; 18
     d2c:	8f ec       	ldi	r24, 0xCF	; 207
     d2e:	97 e0       	ldi	r25, 0x07	; 7
     d30:	01 97       	sbiw	r24, 0x01	; 1
     d32:	f1 f7       	brne	.-4      	; 0xd30 <Reset+0x14>
     d34:	00 c0       	rjmp	.+0      	; 0xd36 <Reset+0x1a>
     d36:	00 00       	nop
     d38:	08 95       	ret

00000d3a <TFTInit>:
     d3a:	cf 93       	push	r28
     d3c:	bb 9a       	sbi	0x17, 3	; 23
     d3e:	8f 9a       	sbi	0x11, 7	; 17
     d40:	8a 9a       	sbi	0x11, 2	; 17
     d42:	8b 9a       	sbi	0x11, 3	; 17
     d44:	8d 9a       	sbi	0x11, 5	; 17
     d46:	8c 9a       	sbi	0x11, 4	; 17
     d48:	c3 9a       	sbi	0x18, 3	; 24
     d4a:	0e 94 8e 06 	call	0xd1c	; 0xd1c <Reset>
     d4e:	60 e0       	ldi	r22, 0x00	; 0
     d50:	89 eb       	ldi	r24, 0xB9	; 185
     d52:	0e 94 71 06 	call	0xce2	; 0xce2 <write_byte>
     d56:	61 e0       	ldi	r22, 0x01	; 1
     d58:	8f ef       	ldi	r24, 0xFF	; 255
     d5a:	0e 94 71 06 	call	0xce2	; 0xce2 <write_byte>
     d5e:	61 e0       	ldi	r22, 0x01	; 1
     d60:	83 e8       	ldi	r24, 0x83	; 131
     d62:	0e 94 71 06 	call	0xce2	; 0xce2 <write_byte>
     d66:	61 e0       	ldi	r22, 0x01	; 1
     d68:	83 e5       	ldi	r24, 0x53	; 83
     d6a:	0e 94 71 06 	call	0xce2	; 0xce2 <write_byte>
     d6e:	60 e0       	ldi	r22, 0x00	; 0
     d70:	80 eb       	ldi	r24, 0xB0	; 176
     d72:	0e 94 71 06 	call	0xce2	; 0xce2 <write_byte>
     d76:	61 e0       	ldi	r22, 0x01	; 1
     d78:	8c e3       	ldi	r24, 0x3C	; 60
     d7a:	0e 94 71 06 	call	0xce2	; 0xce2 <write_byte>
     d7e:	61 e0       	ldi	r22, 0x01	; 1
     d80:	81 e0       	ldi	r24, 0x01	; 1
     d82:	0e 94 71 06 	call	0xce2	; 0xce2 <write_byte>
     d86:	60 e0       	ldi	r22, 0x00	; 0
     d88:	86 eb       	ldi	r24, 0xB6	; 182
     d8a:	0e 94 71 06 	call	0xce2	; 0xce2 <write_byte>
     d8e:	61 e0       	ldi	r22, 0x01	; 1
     d90:	84 e9       	ldi	r24, 0x94	; 148
     d92:	0e 94 71 06 	call	0xce2	; 0xce2 <write_byte>
     d96:	61 e0       	ldi	r22, 0x01	; 1
     d98:	8c e6       	ldi	r24, 0x6C	; 108
     d9a:	0e 94 71 06 	call	0xce2	; 0xce2 <write_byte>
     d9e:	61 e0       	ldi	r22, 0x01	; 1
     da0:	80 e5       	ldi	r24, 0x50	; 80
     da2:	0e 94 71 06 	call	0xce2	; 0xce2 <write_byte>
     da6:	60 e0       	ldi	r22, 0x00	; 0
     da8:	81 eb       	ldi	r24, 0xB1	; 177
     daa:	0e 94 71 06 	call	0xce2	; 0xce2 <write_byte>
     dae:	61 e0       	ldi	r22, 0x01	; 1
     db0:	80 e0       	ldi	r24, 0x00	; 0
     db2:	0e 94 71 06 	call	0xce2	; 0xce2 <write_byte>
     db6:	61 e0       	ldi	r22, 0x01	; 1
     db8:	81 e0       	ldi	r24, 0x01	; 1
     dba:	0e 94 71 06 	call	0xce2	; 0xce2 <write_byte>
     dbe:	61 e0       	ldi	r22, 0x01	; 1
     dc0:	8b e1       	ldi	r24, 0x1B	; 27
     dc2:	0e 94 71 06 	call	0xce2	; 0xce2 <write_byte>
     dc6:	61 e0       	ldi	r22, 0x01	; 1
     dc8:	83 e0       	ldi	r24, 0x03	; 3
     dca:	0e 94 71 06 	call	0xce2	; 0xce2 <write_byte>
     dce:	61 e0       	ldi	r22, 0x01	; 1
     dd0:	81 e0       	ldi	r24, 0x01	; 1
     dd2:	0e 94 71 06 	call	0xce2	; 0xce2 <write_byte>
     dd6:	61 e0       	ldi	r22, 0x01	; 1
     dd8:	88 e0       	ldi	r24, 0x08	; 8
     dda:	0e 94 71 06 	call	0xce2	; 0xce2 <write_byte>
     dde:	61 e0       	ldi	r22, 0x01	; 1
     de0:	87 e7       	ldi	r24, 0x77	; 119
     de2:	0e 94 71 06 	call	0xce2	; 0xce2 <write_byte>
     de6:	61 e0       	ldi	r22, 0x01	; 1
     de8:	89 e8       	ldi	r24, 0x89	; 137
     dea:	0e 94 71 06 	call	0xce2	; 0xce2 <write_byte>
     dee:	60 e0       	ldi	r22, 0x00	; 0
     df0:	80 ee       	ldi	r24, 0xE0	; 224
     df2:	0e 94 71 06 	call	0xce2	; 0xce2 <write_byte>
     df6:	61 e0       	ldi	r22, 0x01	; 1
     df8:	80 e5       	ldi	r24, 0x50	; 80
     dfa:	0e 94 71 06 	call	0xce2	; 0xce2 <write_byte>
     dfe:	61 e0       	ldi	r22, 0x01	; 1
     e00:	87 e7       	ldi	r24, 0x77	; 119
     e02:	0e 94 71 06 	call	0xce2	; 0xce2 <write_byte>
     e06:	61 e0       	ldi	r22, 0x01	; 1
     e08:	80 e4       	ldi	r24, 0x40	; 64
     e0a:	0e 94 71 06 	call	0xce2	; 0xce2 <write_byte>
     e0e:	61 e0       	ldi	r22, 0x01	; 1
     e10:	88 e0       	ldi	r24, 0x08	; 8
     e12:	0e 94 71 06 	call	0xce2	; 0xce2 <write_byte>
     e16:	61 e0       	ldi	r22, 0x01	; 1
     e18:	8f eb       	ldi	r24, 0xBF	; 191
     e1a:	0e 94 71 06 	call	0xce2	; 0xce2 <write_byte>
     e1e:	61 e0       	ldi	r22, 0x01	; 1
     e20:	80 e0       	ldi	r24, 0x00	; 0
     e22:	0e 94 71 06 	call	0xce2	; 0xce2 <write_byte>
     e26:	61 e0       	ldi	r22, 0x01	; 1
     e28:	83 e0       	ldi	r24, 0x03	; 3
     e2a:	0e 94 71 06 	call	0xce2	; 0xce2 <write_byte>
     e2e:	61 e0       	ldi	r22, 0x01	; 1
     e30:	8f e0       	ldi	r24, 0x0F	; 15
     e32:	0e 94 71 06 	call	0xce2	; 0xce2 <write_byte>
     e36:	61 e0       	ldi	r22, 0x01	; 1
     e38:	80 e0       	ldi	r24, 0x00	; 0
     e3a:	0e 94 71 06 	call	0xce2	; 0xce2 <write_byte>
     e3e:	61 e0       	ldi	r22, 0x01	; 1
     e40:	81 e0       	ldi	r24, 0x01	; 1
     e42:	0e 94 71 06 	call	0xce2	; 0xce2 <write_byte>
     e46:	61 e0       	ldi	r22, 0x01	; 1
     e48:	83 e7       	ldi	r24, 0x73	; 115
     e4a:	0e 94 71 06 	call	0xce2	; 0xce2 <write_byte>
     e4e:	61 e0       	ldi	r22, 0x01	; 1
     e50:	80 e0       	ldi	r24, 0x00	; 0
     e52:	0e 94 71 06 	call	0xce2	; 0xce2 <write_byte>
     e56:	61 e0       	ldi	r22, 0x01	; 1
     e58:	82 e7       	ldi	r24, 0x72	; 114
     e5a:	0e 94 71 06 	call	0xce2	; 0xce2 <write_byte>
     e5e:	61 e0       	ldi	r22, 0x01	; 1
     e60:	83 e0       	ldi	r24, 0x03	; 3
     e62:	0e 94 71 06 	call	0xce2	; 0xce2 <write_byte>
     e66:	61 e0       	ldi	r22, 0x01	; 1
     e68:	80 eb       	ldi	r24, 0xB0	; 176
     e6a:	0e 94 71 06 	call	0xce2	; 0xce2 <write_byte>
     e6e:	61 e0       	ldi	r22, 0x01	; 1
     e70:	8f e0       	ldi	r24, 0x0F	; 15
     e72:	0e 94 71 06 	call	0xce2	; 0xce2 <write_byte>
     e76:	61 e0       	ldi	r22, 0x01	; 1
     e78:	88 e0       	ldi	r24, 0x08	; 8
     e7a:	0e 94 71 06 	call	0xce2	; 0xce2 <write_byte>
     e7e:	61 e0       	ldi	r22, 0x01	; 1
     e80:	80 e0       	ldi	r24, 0x00	; 0
     e82:	0e 94 71 06 	call	0xce2	; 0xce2 <write_byte>
     e86:	61 e0       	ldi	r22, 0x01	; 1
     e88:	8f e0       	ldi	r24, 0x0F	; 15
     e8a:	0e 94 71 06 	call	0xce2	; 0xce2 <write_byte>
     e8e:	60 e0       	ldi	r22, 0x00	; 0
     e90:	8a e3       	ldi	r24, 0x3A	; 58
     e92:	0e 94 71 06 	call	0xce2	; 0xce2 <write_byte>
     e96:	61 e0       	ldi	r22, 0x01	; 1
     e98:	85 e0       	ldi	r24, 0x05	; 5
     e9a:	0e 94 71 06 	call	0xce2	; 0xce2 <write_byte>
     e9e:	60 e0       	ldi	r22, 0x00	; 0
     ea0:	86 e3       	ldi	r24, 0x36	; 54
     ea2:	0e 94 71 06 	call	0xce2	; 0xce2 <write_byte>
     ea6:	61 e0       	ldi	r22, 0x01	; 1
     ea8:	80 ec       	ldi	r24, 0xC0	; 192
     eaa:	0e 94 71 06 	call	0xce2	; 0xce2 <write_byte>
     eae:	60 e0       	ldi	r22, 0x00	; 0
     eb0:	81 e1       	ldi	r24, 0x11	; 17
     eb2:	0e 94 71 06 	call	0xce2	; 0xce2 <write_byte>
     eb6:	2f e7       	ldi	r18, 0x7F	; 127
     eb8:	89 ea       	ldi	r24, 0xA9	; 169
     eba:	93 e0       	ldi	r25, 0x03	; 3
     ebc:	21 50       	subi	r18, 0x01	; 1
     ebe:	80 40       	sbci	r24, 0x00	; 0
     ec0:	90 40       	sbci	r25, 0x00	; 0
     ec2:	e1 f7       	brne	.-8      	; 0xebc <TFTInit+0x182>
     ec4:	00 c0       	rjmp	.+0      	; 0xec6 <TFTInit+0x18c>
     ec6:	00 00       	nop
     ec8:	60 e0       	ldi	r22, 0x00	; 0
     eca:	89 e2       	ldi	r24, 0x29	; 41
     ecc:	0e 94 71 06 	call	0xce2	; 0xce2 <write_byte>
     ed0:	2f e7       	ldi	r18, 0x7F	; 127
     ed2:	89 ea       	ldi	r24, 0xA9	; 169
     ed4:	93 e0       	ldi	r25, 0x03	; 3
     ed6:	21 50       	subi	r18, 0x01	; 1
     ed8:	80 40       	sbci	r24, 0x00	; 0
     eda:	90 40       	sbci	r25, 0x00	; 0
     edc:	e1 f7       	brne	.-8      	; 0xed6 <TFTInit+0x19c>
     ede:	00 c0       	rjmp	.+0      	; 0xee0 <TFTInit+0x1a6>
     ee0:	00 00       	nop
     ee2:	60 e0       	ldi	r22, 0x00	; 0
     ee4:	8d e2       	ldi	r24, 0x2D	; 45
     ee6:	0e 94 71 06 	call	0xce2	; 0xce2 <write_byte>
     eea:	c0 e0       	ldi	r28, 0x00	; 0
     eec:	61 e0       	ldi	r22, 0x01	; 1
     eee:	8c 2f       	mov	r24, r28
     ef0:	0e 94 71 06 	call	0xce2	; 0xce2 <write_byte>
     ef4:	ce 5f       	subi	r28, 0xFE	; 254
     ef6:	c0 34       	cpi	r28, 0x40	; 64
     ef8:	c9 f7       	brne	.-14     	; 0xeec <TFTInit+0x1b2>
     efa:	c0 e0       	ldi	r28, 0x00	; 0
     efc:	61 e0       	ldi	r22, 0x01	; 1
     efe:	8c 2f       	mov	r24, r28
     f00:	0e 94 71 06 	call	0xce2	; 0xce2 <write_byte>
     f04:	cf 5f       	subi	r28, 0xFF	; 255
     f06:	c0 34       	cpi	r28, 0x40	; 64
     f08:	c9 f7       	brne	.-14     	; 0xefc <TFTInit+0x1c2>
     f0a:	c0 e0       	ldi	r28, 0x00	; 0
     f0c:	61 e0       	ldi	r22, 0x01	; 1
     f0e:	8c 2f       	mov	r24, r28
     f10:	0e 94 71 06 	call	0xce2	; 0xce2 <write_byte>
     f14:	ce 5f       	subi	r28, 0xFE	; 254
     f16:	c0 34       	cpi	r28, 0x40	; 64
     f18:	c9 f7       	brne	.-14     	; 0xf0c <TFTInit+0x1d2>
     f1a:	60 e0       	ldi	r22, 0x00	; 0
     f1c:	8c e2       	ldi	r24, 0x2C	; 44
     f1e:	0e 94 71 06 	call	0xce2	; 0xce2 <write_byte>
     f22:	2f e7       	ldi	r18, 0x7F	; 127
     f24:	89 ea       	ldi	r24, 0xA9	; 169
     f26:	93 e0       	ldi	r25, 0x03	; 3
     f28:	21 50       	subi	r18, 0x01	; 1
     f2a:	80 40       	sbci	r24, 0x00	; 0
     f2c:	90 40       	sbci	r25, 0x00	; 0
     f2e:	e1 f7       	brne	.-8      	; 0xf28 <TFTInit+0x1ee>
     f30:	00 c0       	rjmp	.+0      	; 0xf32 <TFTInit+0x1f8>
     f32:	00 00       	nop
     f34:	cf 91       	pop	r28
     f36:	08 95       	ret

00000f38 <WriteTwoByte>:
     f38:	cf 93       	push	r28
     f3a:	c6 2f       	mov	r28, r22
     f3c:	61 e0       	ldi	r22, 0x01	; 1
     f3e:	0e 94 71 06 	call	0xce2	; 0xce2 <write_byte>
     f42:	61 e0       	ldi	r22, 0x01	; 1
     f44:	8c 2f       	mov	r24, r28
     f46:	0e 94 71 06 	call	0xce2	; 0xce2 <write_byte>
     f4a:	cf 91       	pop	r28
     f4c:	08 95       	ret

00000f4e <OutColor>:
     f4e:	68 2f       	mov	r22, r24
     f50:	89 2f       	mov	r24, r25
     f52:	0e 94 9c 07 	call	0xf38	; 0xf38 <WriteTwoByte>
     f56:	08 95       	ret

00000f58 <TFTSingleColor>:
     f58:	ff 92       	push	r15
     f5a:	0f 93       	push	r16
     f5c:	1f 93       	push	r17
     f5e:	cf 93       	push	r28
     f60:	df 93       	push	r29
     f62:	8c 01       	movw	r16, r24
     f64:	d0 ea       	ldi	r29, 0xA0	; 160
     f66:	f1 2c       	mov	r15, r1
     f68:	08 c0       	rjmp	.+16     	; 0xf7a <TFTSingleColor+0x22>
     f6a:	c8 01       	movw	r24, r16
     f6c:	0e 94 a7 07 	call	0xf4e	; 0xf4e <OutColor>
     f70:	cf 5f       	subi	r28, 0xFF	; 255
     f72:	c0 38       	cpi	r28, 0x80	; 128
     f74:	d1 f7       	brne	.-12     	; 0xf6a <TFTSingleColor+0x12>
     f76:	d1 50       	subi	r29, 0x01	; 1
     f78:	11 f0       	breq	.+4      	; 0xf7e <TFTSingleColor+0x26>
     f7a:	cf 2d       	mov	r28, r15
     f7c:	f6 cf       	rjmp	.-20     	; 0xf6a <TFTSingleColor+0x12>
     f7e:	df 91       	pop	r29
     f80:	cf 91       	pop	r28
     f82:	1f 91       	pop	r17
     f84:	0f 91       	pop	r16
     f86:	ff 90       	pop	r15
     f88:	08 95       	ret

00000f8a <Area>:
     f8a:	0f 93       	push	r16
     f8c:	1f 93       	push	r17
     f8e:	cf 93       	push	r28
     f90:	df 93       	push	r29
     f92:	d8 2f       	mov	r29, r24
     f94:	06 2f       	mov	r16, r22
     f96:	c4 2f       	mov	r28, r20
     f98:	12 2f       	mov	r17, r18
     f9a:	60 e0       	ldi	r22, 0x00	; 0
     f9c:	8a e2       	ldi	r24, 0x2A	; 42
     f9e:	0e 94 71 06 	call	0xce2	; 0xce2 <write_byte>
     fa2:	61 e0       	ldi	r22, 0x01	; 1
     fa4:	80 e0       	ldi	r24, 0x00	; 0
     fa6:	0e 94 71 06 	call	0xce2	; 0xce2 <write_byte>
     faa:	61 e0       	ldi	r22, 0x01	; 1
     fac:	80 2f       	mov	r24, r16
     fae:	0e 94 71 06 	call	0xce2	; 0xce2 <write_byte>
     fb2:	61 e0       	ldi	r22, 0x01	; 1
     fb4:	80 e0       	ldi	r24, 0x00	; 0
     fb6:	0e 94 71 06 	call	0xce2	; 0xce2 <write_byte>
     fba:	61 e0       	ldi	r22, 0x01	; 1
     fbc:	81 2f       	mov	r24, r17
     fbe:	0e 94 71 06 	call	0xce2	; 0xce2 <write_byte>
     fc2:	60 e0       	ldi	r22, 0x00	; 0
     fc4:	8b e2       	ldi	r24, 0x2B	; 43
     fc6:	0e 94 71 06 	call	0xce2	; 0xce2 <write_byte>
     fca:	61 e0       	ldi	r22, 0x01	; 1
     fcc:	80 e0       	ldi	r24, 0x00	; 0
     fce:	0e 94 71 06 	call	0xce2	; 0xce2 <write_byte>
     fd2:	61 e0       	ldi	r22, 0x01	; 1
     fd4:	8d 2f       	mov	r24, r29
     fd6:	0e 94 71 06 	call	0xce2	; 0xce2 <write_byte>
     fda:	61 e0       	ldi	r22, 0x01	; 1
     fdc:	80 e0       	ldi	r24, 0x00	; 0
     fde:	0e 94 71 06 	call	0xce2	; 0xce2 <write_byte>
     fe2:	61 e0       	ldi	r22, 0x01	; 1
     fe4:	8c 2f       	mov	r24, r28
     fe6:	0e 94 71 06 	call	0xce2	; 0xce2 <write_byte>
     fea:	60 e0       	ldi	r22, 0x00	; 0
     fec:	8c e2       	ldi	r24, 0x2C	; 44
     fee:	0e 94 71 06 	call	0xce2	; 0xce2 <write_byte>
     ff2:	df 91       	pop	r29
     ff4:	cf 91       	pop	r28
     ff6:	1f 91       	pop	r17
     ff8:	0f 91       	pop	r16
     ffa:	08 95       	ret

00000ffc <lcd_st7735_putchar>:

 //============================================================
 void lcd_st7735_putchar(char x, char y, char chr,unsigned int  charColor, unsigned int bkgColor)
 {
     ffc:	6f 92       	push	r6
     ffe:	7f 92       	push	r7
    1000:	8f 92       	push	r8
    1002:	9f 92       	push	r9
    1004:	af 92       	push	r10
    1006:	bf 92       	push	r11
    1008:	cf 92       	push	r12
    100a:	df 92       	push	r13
    100c:	ef 92       	push	r14
    100e:	ff 92       	push	r15
    1010:	0f 93       	push	r16
    1012:	1f 93       	push	r17
    1014:	cf 93       	push	r28
    1016:	df 93       	push	r29
    1018:	98 2f       	mov	r25, r24
    101a:	86 2f       	mov	r24, r22
    101c:	c4 2f       	mov	r28, r20
    101e:	82 2e       	mov	r8, r18
    1020:	93 2e       	mov	r9, r19
	 char i;
	 char j;
	 char h;
	 unsigned int color;
	 
	 PORT_LCD|=(1<<CS);
    1022:	92 9a       	sbi	0x12, 2	; 18

	 Area(y, x, y+12, x+8);
    1024:	28 e0       	ldi	r18, 0x08	; 8
    1026:	29 0f       	add	r18, r25
    1028:	4c e0       	ldi	r20, 0x0C	; 12
    102a:	46 0f       	add	r20, r22
    102c:	69 2f       	mov	r22, r25
    102e:	0e 94 c5 07 	call	0xf8a	; 0xf8a <Area>
	 write_byte(0x2C,0);
    1032:	60 e0       	ldi	r22, 0x00	; 0
    1034:	8c e2       	ldi	r24, 0x2C	; 44
    1036:	0e 94 71 06 	call	0xce2	; 0xce2 <write_byte>

	 char k;
	 for (i=0;i<7;i++)
	 for (k=2;k>0;k--)
	 {
		 char chl = pgm_read_byte(&(NewBFontLAT[ ( (chr-0x20)*14 + i+ 7*(k-1)) ]));
    103a:	8c 2f       	mov	r24, r28
    103c:	90 e0       	ldi	r25, 0x00	; 0
    103e:	80 97       	sbiw	r24, 0x20	; 32
    1040:	88 0f       	add	r24, r24
    1042:	99 1f       	adc	r25, r25
    1044:	6c 01       	movw	r12, r24
    1046:	cc 0c       	add	r12, r12
    1048:	dd 1c       	adc	r13, r13
    104a:	cc 0c       	add	r12, r12
    104c:	dd 1c       	adc	r13, r13
    104e:	cc 0c       	add	r12, r12
    1050:	dd 1c       	adc	r13, r13
    1052:	96 01       	movw	r18, r12
    1054:	28 1b       	sub	r18, r24
    1056:	39 0b       	sbc	r19, r25
    1058:	f9 01       	movw	r30, r18
    105a:	ec 5a       	subi	r30, 0xAC	; 172
    105c:	ff 4f       	sbci	r31, 0xFF	; 255
    105e:	7f 01       	movw	r14, r30
    1060:	25 5a       	subi	r18, 0xA5	; 165
    1062:	3f 4f       	sbci	r19, 0xFF	; 255
    1064:	69 01       	movw	r12, r18
		 chl=chl<<2*(k-1); // нижнюю половину символа сдвигаем на 1 позицию влево (убираем одну линию снизу)
    1066:	71 2c       	mov	r7, r1
		 if (k==2) h=6; else h=7; // у нижней половины выведем только 6 точек вместо 7
		 for (j=0;j<h;j++)
		 {
			 if (chl & 0x80) color=charColor; else color=bkgColor;
    1068:	a0 2e       	mov	r10, r16
    106a:	b1 2e       	mov	r11, r17
    106c:	1b c0       	rjmp	.+54     	; 0x10a4 <lcd_st7735_putchar+0xa8>

	 char k;
	 for (i=0;i<7;i++)
	 for (k=2;k>0;k--)
	 {
		 char chl = pgm_read_byte(&(NewBFontLAT[ ( (chr-0x20)*14 + i+ 7*(k-1)) ]));
    106e:	f7 01       	movw	r30, r14
    1070:	d4 91       	lpm	r29, Z
		 chl=chl<<2*(k-1); // нижнюю половину символа сдвигаем на 1 позицию влево (убираем одну линию снизу)
    1072:	c7 2d       	mov	r28, r7
		 if (k==2) h=6; else h=7; // у нижней половины выведем только 6 точек вместо 7
		 for (j=0;j<h;j++)
		 {
			 if (chl & 0x80) color=charColor; else color=bkgColor;
    1074:	dd 23       	and	r29, r29
    1076:	1c f0       	brlt	.+6      	; 0x107e <lcd_st7735_putchar+0x82>
    1078:	6a 2c       	mov	r6, r10
    107a:	8b 2d       	mov	r24, r11
    107c:	02 c0       	rjmp	.+4      	; 0x1082 <lcd_st7735_putchar+0x86>
    107e:	68 2c       	mov	r6, r8
    1080:	89 2d       	mov	r24, r9
			 chl = chl<<1;
    1082:	dd 0f       	add	r29, r29
			 write_byte(((unsigned char)((color & 0xFF00)>>8)),1);
    1084:	61 e0       	ldi	r22, 0x01	; 1
    1086:	0e 94 71 06 	call	0xce2	; 0xce2 <write_byte>
			 write_byte(((unsigned char) (color & 0x00FF)),1);
    108a:	61 e0       	ldi	r22, 0x01	; 1
    108c:	86 2d       	mov	r24, r6
    108e:	0e 94 71 06 	call	0xce2	; 0xce2 <write_byte>
	 for (k=2;k>0;k--)
	 {
		 char chl = pgm_read_byte(&(NewBFontLAT[ ( (chr-0x20)*14 + i+ 7*(k-1)) ]));
		 chl=chl<<2*(k-1); // нижнюю половину символа сдвигаем на 1 позицию влево (убираем одну линию снизу)
		 if (k==2) h=6; else h=7; // у нижней половины выведем только 6 точек вместо 7
		 for (j=0;j<h;j++)
    1092:	cf 5f       	subi	r28, 0xFF	; 255
    1094:	c7 30       	cpi	r28, 0x07	; 7
    1096:	71 f7       	brne	.-36     	; 0x1074 <lcd_st7735_putchar+0x78>
    1098:	ff ef       	ldi	r31, 0xFF	; 255
    109a:	ef 1a       	sub	r14, r31
    109c:	ff 0a       	sbc	r15, r31
	 Area(y, x, y+12, x+8);
	 write_byte(0x2C,0);


	 char k;
	 for (i=0;i<7;i++)
    109e:	ec 14       	cp	r14, r12
    10a0:	fd 04       	cpc	r15, r13
    10a2:	c9 f0       	breq	.+50     	; 0x10d6 <lcd_st7735_putchar+0xda>
    10a4:	f7 01       	movw	r30, r14
    10a6:	37 96       	adiw	r30, 0x07	; 7
	 for (k=2;k>0;k--)
	 {
		 char chl = pgm_read_byte(&(NewBFontLAT[ ( (chr-0x20)*14 + i+ 7*(k-1)) ]));
    10a8:	c4 91       	lpm	r28, Z
		 chl=chl<<2*(k-1); // нижнюю половину символа сдвигаем на 1 позицию влево (убираем одну линию снизу)
    10aa:	cc 0f       	add	r28, r28
    10ac:	cc 0f       	add	r28, r28
    10ae:	d7 2d       	mov	r29, r7
		 if (k==2) h=6; else h=7; // у нижней половины выведем только 6 точек вместо 7
		 for (j=0;j<h;j++)
		 {
			 if (chl & 0x80) color=charColor; else color=bkgColor;
    10b0:	cc 23       	and	r28, r28
    10b2:	1c f0       	brlt	.+6      	; 0x10ba <lcd_st7735_putchar+0xbe>
    10b4:	6a 2c       	mov	r6, r10
    10b6:	8b 2d       	mov	r24, r11
    10b8:	02 c0       	rjmp	.+4      	; 0x10be <lcd_st7735_putchar+0xc2>
    10ba:	68 2c       	mov	r6, r8
    10bc:	89 2d       	mov	r24, r9
			 chl = chl<<1;
    10be:	cc 0f       	add	r28, r28
			 write_byte(((unsigned char)((color & 0xFF00)>>8)),1);
    10c0:	61 e0       	ldi	r22, 0x01	; 1
    10c2:	0e 94 71 06 	call	0xce2	; 0xce2 <write_byte>
			 write_byte(((unsigned char) (color & 0x00FF)),1);
    10c6:	61 e0       	ldi	r22, 0x01	; 1
    10c8:	86 2d       	mov	r24, r6
    10ca:	0e 94 71 06 	call	0xce2	; 0xce2 <write_byte>
	 for (k=2;k>0;k--)
	 {
		 char chl = pgm_read_byte(&(NewBFontLAT[ ( (chr-0x20)*14 + i+ 7*(k-1)) ]));
		 chl=chl<<2*(k-1); // нижнюю половину символа сдвигаем на 1 позицию влево (убираем одну линию снизу)
		 if (k==2) h=6; else h=7; // у нижней половины выведем только 6 точек вместо 7
		 for (j=0;j<h;j++)
    10ce:	df 5f       	subi	r29, 0xFF	; 255
    10d0:	d6 30       	cpi	r29, 0x06	; 6
    10d2:	71 f7       	brne	.-36     	; 0x10b0 <lcd_st7735_putchar+0xb4>
    10d4:	cc cf       	rjmp	.-104    	; 0x106e <lcd_st7735_putchar+0x72>
	 }
	 
	 // рисуем справо от символа пустую вертикальную линию для бокового интервала
	 for (j=0;j<13;j++)
	 {
		 write_byte(((unsigned char)((bkgColor & 0xFF00)>>8)),1);
    10d6:	cd e0       	ldi	r28, 0x0D	; 13
    10d8:	61 e0       	ldi	r22, 0x01	; 1
    10da:	81 2f       	mov	r24, r17
    10dc:	0e 94 71 06 	call	0xce2	; 0xce2 <write_byte>
		 write_byte(((unsigned char) (bkgColor & 0x00FF)),1);
    10e0:	61 e0       	ldi	r22, 0x01	; 1
    10e2:	80 2f       	mov	r24, r16
    10e4:	0e 94 71 06 	call	0xce2	; 0xce2 <write_byte>
    10e8:	c1 50       	subi	r28, 0x01	; 1
			 write_byte(((unsigned char) (color & 0x00FF)),1);
		 }
	 }
	 
	 // рисуем справо от символа пустую вертикальную линию для бокового интервала
	 for (j=0;j<13;j++)
    10ea:	b1 f7       	brne	.-20     	; 0x10d8 <lcd_st7735_putchar+0xdc>
	 {
		 write_byte(((unsigned char)((bkgColor & 0xFF00)>>8)),1);
		 write_byte(((unsigned char) (bkgColor & 0x00FF)),1);
	 }
	 
	 PORT_LCD&=~(1<<CS);
    10ec:	92 98       	cbi	0x12, 2	; 18
 }
    10ee:	df 91       	pop	r29
    10f0:	cf 91       	pop	r28
    10f2:	1f 91       	pop	r17
    10f4:	0f 91       	pop	r16
    10f6:	ff 90       	pop	r15
    10f8:	ef 90       	pop	r14
    10fa:	df 90       	pop	r13
    10fc:	cf 90       	pop	r12
    10fe:	bf 90       	pop	r11
    1100:	af 90       	pop	r10
    1102:	9f 90       	pop	r9
    1104:	8f 90       	pop	r8
    1106:	7f 90       	pop	r7
    1108:	6f 90       	pop	r6
    110a:	08 95       	ret

0000110c <_exit>:
    110c:	f8 94       	cli

0000110e <__stop_program>:
    110e:	ff cf       	rjmp	.-2      	; 0x110e <__stop_program>
